(dp0
S'sfcRequestSourceDst'
p1
(dp2
I1
(I13
I19
tp3
sI2
(I12
I18
tp4
sI3
(I13
I19
tp5
sI4
(I13
I19
tp6
sI5
(I13
I19
tp7
sI6
(I13
I18
tp8
sI7
(I13
I19
tp9
sI8
(I13
I19
tp10
sI9
(I12
I18
tp11
sI10
(I12
I18
tp12
sI11
(I12
I18
tp13
sI12
(I12
I18
tp14
sI13
(I12
I18
tp15
sI14
(I12
I18
tp16
sI15
(I12
I18
tp17
sI16
(I13
I19
tp18
sI17
(I12
I19
tp19
sI18
(I13
I19
tp20
sI19
(I12
I18
tp21
sI20
(I12
I18
tp22
sI21
(I12
I19
tp23
sI22
(I13
I18
tp24
sI23
(I13
I19
tp25
sI24
(I12
I19
tp26
sI25
(I13
I18
tp27
sI26
(I13
I19
tp28
sI27
(I12
I19
tp29
sI28
(I12
I18
tp30
sI29
(I12
I18
tp31
sI30
(I12
I19
tp32
sI31
(I12
I19
tp33
sI32
(I13
I19
tp34
sI33
(I12
I19
tp35
sI34
(I13
I18
tp36
sI35
(I12
I19
tp37
sI36
(I12
I18
tp38
sI37
(I12
I18
tp39
sI38
(I13
I18
tp40
sI39
(I13
I18
tp41
sI40
(I12
I19
tp42
sI41
(I12
I18
tp43
sI42
(I12
I19
tp44
sI43
(I13
I18
tp45
sI44
(I12
I19
tp46
sI45
(I13
I18
tp47
sI46
(I12
I18
tp48
sI47
(I12
I18
tp49
sI48
(I13
I18
tp50
sI49
(I13
I19
tp51
sI50
(I13
I18
tp52
sI51
(I12
I19
tp53
sI52
(I13
I19
tp54
sI53
(I12
I19
tp55
sI54
(I12
I19
tp56
sI55
(I13
I19
tp57
sI56
(I13
I19
tp58
sI57
(I12
I18
tp59
sI58
(I12
I18
tp60
sI59
(I12
I18
tp61
sI60
(I12
I18
tp62
sI61
(I13
I18
tp63
sI62
(I12
I18
tp64
sI63
(I12
I19
tp65
sI64
(I13
I18
tp66
sI65
(I13
I18
tp67
sI66
(I13
I19
tp68
sI67
(I12
I19
tp69
sI68
(I12
I19
tp70
sI69
(I12
I19
tp71
sI70
(I12
I19
tp72
sI71
(I12
I18
tp73
sI72
(I12
I18
tp74
sI73
(I13
I19
tp75
sI74
(I13
I18
tp76
sI75
(I13
I18
tp77
sI76
(I12
I18
tp78
sI77
(I13
I18
tp79
sI78
(I12
I18
tp80
sI79
(I13
I18
tp81
sI80
(I13
I19
tp82
sI81
(I12
I19
tp83
sI82
(I12
I19
tp84
sI83
(I12
I18
tp85
sI84
(I12
I18
tp86
sI85
(I12
I19
tp87
sI86
(I13
I19
tp88
sI87
(I12
I19
tp89
sI88
(I13
I18
tp90
sI89
(I12
I18
tp91
sI90
(I12
I19
tp92
sI91
(I12
I18
tp93
sI92
(I13
I18
tp94
sI93
(I12
I18
tp95
sI94
(I13
I19
tp96
sI95
(I13
I19
tp97
sI96
(I12
I19
tp98
sI97
(I13
I18
tp99
sI98
(I13
I18
tp100
sI99
(I12
I19
tp101
sI100
(I13
I19
tp102
ssS'links'
p103
(dp104
(I7
I3
tp105
(dp106
S'Active'
p107
I01
sS'link'
p108
ccopy_reg
_reconstructor
p109
(csam.base.link
Link
p110
c__builtin__
object
p111
Ntp112
Rp113
(dp114
S'bandwidth'
p115
F1.0
sS'utilization'
p116
I0
sS'srcID'
p117
I7
sS'linkLength'
p118
I1
sS'dstID'
p119
I3
sbss(I17
I8
tp120
(dp121
g107
I01
sg108
g109
(g110
g111
Ntp122
Rp123
(dp124
g115
F1.0
sg116
I0
sg117
I17
sg118
I1
sg119
I8
sbss(I16
I9
tp125
(dp126
g107
I01
sg108
g109
(g110
g111
Ntp127
Rp128
(dp129
g115
F1.0
sg116
I0
sg117
I16
sg118
I1
sg119
I9
sbss(I14
I7
tp130
(dp131
g107
I01
sg108
g109
(g110
g111
Ntp132
Rp133
(dp134
g115
F1.0
sg116
I0
sg117
I14
sg118
I1
sg119
I7
sbss(I11
I2
tp135
(dp136
g107
I01
sg108
g109
(g110
g111
Ntp137
Rp138
(dp139
g115
F1.0
sg116
I0
sg117
I11
sg118
I1
sg119
I2
sbss(I8
I0
tp140
(dp141
g107
I01
sg108
g109
(g110
g111
Ntp142
Rp143
(dp144
g115
F1.0
sg116
I0
sg117
I8
sg118
I1
sg119
I0
sbss(I3
I11
tp145
(dp146
g107
I01
sg108
g109
(g110
g111
Ntp147
Rp148
(dp149
g115
F1.0
sg116
I0
sg117
I3
sg118
I1
sg119
I11
sbss(I13
I5
tp150
(dp151
g107
I01
sg108
g109
(g110
g111
Ntp152
Rp153
(dp154
g115
F1.0
sg116
I0
sg117
I13
sg118
I1
sg119
I5
sbss(I12
I5
tp155
(dp156
g107
I01
sg108
g109
(g110
g111
Ntp157
Rp158
(dp159
g115
F1.0
sg116
I0
sg117
I12
sg118
I1
sg119
I5
sbss(I4
I12
tp160
(dp161
g107
I01
sg108
g109
(g110
g111
Ntp162
Rp163
(dp164
g115
F1.0
sg116
I0
sg117
I4
sg118
I1
sg119
I12
sbss(I1
I6
tp165
(dp166
g107
I01
sg108
g109
(g110
g111
Ntp167
Rp168
(dp169
g115
F1.0
sg116
I0
sg117
I1
sg118
I1
sg119
I6
sbss(I0
I10
tp170
(dp171
g107
I01
sg108
g109
(g110
g111
Ntp172
Rp173
(dp174
g115
F1.0
sg116
I0
sg117
I0
sg118
I1
sg119
I10
sbss(I3
I7
tp175
(dp176
g107
I01
sg108
g109
(g110
g111
Ntp177
Rp178
(dp179
g115
F1.0
sg116
I0
sg117
I3
sg118
I1
sg119
I7
sbss(I2
I5
tp180
(dp181
g107
I01
sg108
g109
(g110
g111
Ntp182
Rp183
(dp184
g115
F1.0
sg116
I0
sg117
I2
sg118
I1
sg119
I5
sbss(I11
I19
tp185
(dp186
g107
I01
sg108
g109
(g110
g111
Ntp187
Rp188
(dp189
g115
F1.0
sg116
I0
sg117
I11
sg118
I1
sg119
I19
sbss(I7
I2
tp190
(dp191
g107
I01
sg108
g109
(g110
g111
Ntp192
Rp193
(dp194
g115
F1.0
sg116
I0
sg117
I7
sg118
I1
sg119
I2
sbss(I4
I0
tp195
(dp196
g107
I01
sg108
g109
(g110
g111
Ntp197
Rp198
(dp199
g115
F1.0
sg116
I0
sg117
I4
sg118
I1
sg119
I0
sbss(I7
I15
tp200
(dp201
g107
I01
sg108
g109
(g110
g111
Ntp202
Rp203
(dp204
g115
F1.0
sg116
I0
sg117
I7
sg118
I1
sg119
I15
sbss(I2
I9
tp205
(dp206
g107
I01
sg108
g109
(g110
g111
Ntp207
Rp208
(dp209
g115
F1.0
sg116
I0
sg117
I2
sg118
I1
sg119
I9
sbss(I8
I1
tp210
(dp211
g107
I01
sg108
g109
(g110
g111
Ntp212
Rp213
(dp214
g115
F1.0
sg116
I0
sg117
I8
sg118
I1
sg119
I1
sbss(I5
I12
tp215
(dp216
g107
I01
sg108
g109
(g110
g111
Ntp217
Rp218
(dp219
g115
F1.0
sg116
I0
sg117
I5
sg118
I1
sg119
I12
sbss(I15
I6
tp220
(dp221
g107
I01
sg108
g109
(g110
g111
Ntp222
Rp223
(dp224
g115
F1.0
sg116
I0
sg117
I15
sg118
I1
sg119
I6
sbss(I10
I18
tp225
(dp226
g107
I01
sg108
g109
(g110
g111
Ntp227
Rp228
(dp229
g115
F1.0
sg116
I0
sg117
I10
sg118
I1
sg119
I18
sbss(I4
I13
tp230
(dp231
g107
I01
sg108
g109
(g110
g111
Ntp232
Rp233
(dp234
g115
F1.0
sg116
I0
sg117
I4
sg118
I1
sg119
I13
sbss(I9
I17
tp235
(dp236
g107
I01
sg108
g109
(g110
g111
Ntp237
Rp238
(dp239
g115
F1.0
sg116
I0
sg117
I9
sg118
I1
sg119
I17
sbss(I18
I11
tp240
(dp241
g107
I01
sg108
g109
(g110
g111
Ntp242
Rp243
(dp244
g115
F1.0
sg116
I0
sg117
I18
sg118
I1
sg119
I11
sbss(I0
I4
tp245
(dp246
g107
I01
sg108
g109
(g110
g111
Ntp247
Rp248
(dp249
g115
F1.0
sg116
I0
sg117
I0
sg118
I1
sg119
I4
sbss(I1
I10
tp250
(dp251
g107
I01
sg108
g109
(g110
g111
Ntp252
Rp253
(dp254
g115
F1.0
sg116
I0
sg117
I1
sg118
I1
sg119
I10
sbss(I10
I0
tp255
(dp256
g107
I01
sg108
g109
(g110
g111
Ntp257
Rp258
(dp259
g115
F1.0
sg116
I0
sg117
I10
sg118
I1
sg119
I0
sbss(I19
I10
tp260
(dp261
g107
I01
sg108
g109
(g110
g111
Ntp262
Rp263
(dp264
g115
F1.0
sg116
I0
sg117
I19
sg118
I1
sg119
I10
sbss(I5
I3
tp265
(dp266
g107
I01
sg108
g109
(g110
g111
Ntp267
Rp268
(dp269
g115
F1.0
sg116
I0
sg117
I5
sg118
I1
sg119
I3
sbss(I4
I1
tp270
(dp271
g107
I01
sg108
g109
(g110
g111
Ntp272
Rp273
(dp274
g115
F1.0
sg116
I0
sg117
I4
sg118
I1
sg119
I1
sbss(I13
I4
tp275
(dp276
g107
I01
sg108
g109
(g110
g111
Ntp277
Rp278
(dp279
g115
F1.0
sg116
I0
sg117
I13
sg118
I1
sg119
I4
sbss(I7
I14
tp280
(dp281
g107
I01
sg108
g109
(g110
g111
Ntp282
Rp283
(dp284
g115
F1.0
sg116
I0
sg117
I7
sg118
I1
sg119
I14
sbss(I9
I3
tp285
(dp286
g107
I01
sg108
g109
(g110
g111
Ntp287
Rp288
(dp289
g115
F1.0
sg116
I0
sg117
I9
sg118
I1
sg119
I3
sbss(I10
I19
tp290
(dp291
g107
I01
sg108
g109
(g110
g111
Ntp292
Rp293
(dp294
g115
F1.0
sg116
I0
sg117
I10
sg118
I1
sg119
I19
sbss(I6
I0
tp295
(dp296
g107
I01
sg108
g109
(g110
g111
Ntp297
Rp298
(dp299
g115
F1.0
sg116
I0
sg117
I6
sg118
I1
sg119
I0
sbss(I1
I4
tp300
(dp301
g107
I01
sg108
g109
(g110
g111
Ntp302
Rp303
(dp304
g115
F1.0
sg116
I0
sg117
I1
sg118
I1
sg119
I4
sbss(I5
I13
tp305
(dp306
g107
I01
sg108
g109
(g110
g111
Ntp307
Rp308
(dp309
g115
F1.0
sg116
I0
sg117
I5
sg118
I1
sg119
I13
sbss(I9
I16
tp310
(dp311
g107
I01
sg108
g109
(g110
g111
Ntp312
Rp313
(dp314
g115
F1.0
sg116
I0
sg117
I9
sg118
I1
sg119
I16
sbss(I3
I9
tp315
(dp316
g107
I01
sg108
g109
(g110
g111
Ntp317
Rp318
(dp319
g115
F1.0
sg116
I0
sg117
I3
sg118
I1
sg119
I9
sbss(I15
I7
tp320
(dp321
g107
I01
sg108
g109
(g110
g111
Ntp322
Rp323
(dp324
g115
F1.0
sg116
I0
sg117
I15
sg118
I1
sg119
I7
sbss(I10
I1
tp325
(dp326
g107
I01
sg108
g109
(g110
g111
Ntp327
Rp328
(dp329
g115
F1.0
sg116
I0
sg117
I10
sg118
I1
sg119
I1
sbss(I8
I17
tp330
(dp331
g107
I01
sg108
g109
(g110
g111
Ntp332
Rp333
(dp334
g115
F1.0
sg116
I0
sg117
I8
sg118
I1
sg119
I17
sbss(I0
I8
tp335
(dp336
g107
I01
sg108
g109
(g110
g111
Ntp337
Rp338
(dp339
g115
F1.0
sg116
I0
sg117
I0
sg118
I1
sg119
I8
sbss(I11
I18
tp340
(dp341
g107
I01
sg108
g109
(g110
g111
Ntp342
Rp343
(dp344
g115
F1.0
sg116
I0
sg117
I11
sg118
I1
sg119
I18
sbss(I3
I5
tp345
(dp346
g107
I01
sg108
g109
(g110
g111
Ntp347
Rp348
(dp349
g115
F1.0
sg116
I0
sg117
I3
sg118
I1
sg119
I5
sbss(I2
I7
tp350
(dp351
g107
I01
sg108
g109
(g110
g111
Ntp352
Rp353
(dp354
g115
F1.0
sg116
I0
sg117
I2
sg118
I1
sg119
I7
sbss(I8
I16
tp355
(dp356
g107
I01
sg108
g109
(g110
g111
Ntp357
Rp358
(dp359
g115
F1.0
sg116
I0
sg117
I8
sg118
I1
sg119
I16
sbss(I19
I11
tp360
(dp361
g107
I01
sg108
g109
(g110
g111
Ntp362
Rp363
(dp364
g115
F1.0
sg116
I0
sg117
I19
sg118
I1
sg119
I11
sbss(I17
I9
tp365
(dp366
g107
I01
sg108
g109
(g110
g111
Ntp367
Rp368
(dp369
g115
F1.0
sg116
I0
sg117
I17
sg118
I1
sg119
I9
sbss(I9
I2
tp370
(dp371
g107
I01
sg108
g109
(g110
g111
Ntp372
Rp373
(dp374
g115
F1.0
sg116
I0
sg117
I9
sg118
I1
sg119
I2
sbss(I6
I15
tp375
(dp376
g107
I01
sg108
g109
(g110
g111
Ntp377
Rp378
(dp379
g115
F1.0
sg116
I0
sg117
I6
sg118
I1
sg119
I15
sbss(I6
I1
tp380
(dp381
g107
I01
sg108
g109
(g110
g111
Ntp382
Rp383
(dp384
g115
F1.0
sg116
I0
sg117
I6
sg118
I1
sg119
I1
sbss(I16
I8
tp385
(dp386
g107
I01
sg108
g109
(g110
g111
Ntp387
Rp388
(dp389
g115
F1.0
sg116
I0
sg117
I16
sg118
I1
sg119
I8
sbss(I2
I11
tp390
(dp391
g107
I01
sg108
g109
(g110
g111
Ntp392
Rp393
(dp394
g115
F1.0
sg116
I0
sg117
I2
sg118
I1
sg119
I11
sbss(I11
I3
tp395
(dp396
g107
I01
sg108
g109
(g110
g111
Ntp397
Rp398
(dp399
g115
F1.0
sg116
I0
sg117
I11
sg118
I1
sg119
I3
sbss(I14
I6
tp400
(dp401
g107
I01
sg108
g109
(g110
g111
Ntp402
Rp403
(dp404
g115
F1.0
sg116
I0
sg117
I14
sg118
I1
sg119
I6
sbss(I6
I14
tp405
(dp406
g107
I01
sg108
g109
(g110
g111
Ntp407
Rp408
(dp409
g115
F1.0
sg116
I0
sg117
I6
sg118
I1
sg119
I14
sbss(I0
I6
tp410
(dp411
g107
I01
sg108
g109
(g110
g111
Ntp412
Rp413
(dp414
g115
F1.0
sg116
I0
sg117
I0
sg118
I1
sg119
I6
sbss(I1
I8
tp415
(dp416
g107
I01
sg108
g109
(g110
g111
Ntp417
Rp418
(dp419
g115
F1.0
sg116
I0
sg117
I1
sg118
I1
sg119
I8
sbss(I12
I4
tp420
(dp421
g107
I01
sg108
g109
(g110
g111
Ntp422
Rp423
(dp424
g115
F1.0
sg116
I0
sg117
I12
sg118
I1
sg119
I4
sbss(I18
I10
tp425
(dp426
g107
I01
sg108
g109
(g110
g111
Ntp427
Rp428
(dp429
g115
F1.0
sg116
I0
sg117
I18
sg118
I1
sg119
I10
sbss(I5
I2
tp430
(dp431
g107
I01
sg108
g109
(g110
g111
Ntp432
Rp433
(dp434
g115
F1.0
sg116
I0
sg117
I5
sg118
I1
sg119
I2
sbsssS'linkNum'
p435
I64
sS'servers'
p436
(dp437
I10001
(dp438
g107
I01
sS'timestamp'
p439
cdatetime
datetime
p440
(S"\x07\xe4\n\x1b\x00\x02'\x06<\x14"
p441
tp442
Rp443
sS'server'
p444
g109
(csam.base.server
Server
p445
g111
Ntp446
Rp447
(dp448
S'_serverDatapathNICIP'
p449
S'2.2.0.2'
p450
sS'_memoryAccessMode'
p451
S'NUMA'
p452
sS'_supportVNFSet'
p453
(lp454
sS'_ifSet'
p455
(dp456
S'eno1'
p457
(dp458
S'IP'
p459
g450
sssS'_socketNum'
p460
I2
sS'_numaNum'
p461
I2
sS'_hugepageSize'
p462
I1048576
sS'_coreUtilization'
p463
(lp464
F100.0
aF6.7
aF0.0
aF0.0
aF0.0
aF0.0
aF14.3
aF0.0
aF14.3
aF0.0
aF13.3
aF0.0
aF0.0
aF0.0
aF0.0
aF21.4
aF0.0
aF6.7
aF0.0
aF7.1
aF0.0
aF7.1
aF0.0
aF0.0
aF0.0
aF0.0
aF0.0
aF6.7
aF0.0
aF0.0
aF7.1
aF0.0
aF0.0
aF0.0
aF0.0
aF13.3
aF0.0
aF15.4
aF0.0
aF7.1
asS'_coreNUMADistribution'
p465
(lp466
(lp467
I0
aI2
aI4
aI6
aI8
aI10
aI12
aI14
aI16
aI18
aI20
aI22
aI24
aa(lp468
I1
aI3
aI5
aI7
aI9
aI11
aI13
aI15
aI17
aI19
aI21
aI23
aasS'_controlIfName'
p469
g457
sS'_hugepagesFree'
p470
(lp471
I0
aI1
asS'_serverID'
p472
I10001
sS'_serverType'
p473
S'classifier'
p474
sS'_routingTag'
p475
(dp476
sS'_hugepagesTotal'
p477
(lp478
I256
aI256
asS'_serverControlNICIP'
p479
NsS'_serverControlNICMAC'
p480
NsS'_coreSocketDistribution'
p481
(lp482
I20
aI20
asS'_serverDatapathNICMAC'
p483
NsS'_nicBandwidth'
p484
I10
sbssI10002
(dp485
g107
I01
sg439
g440
(S"\x07\xe4\n\x1b\x00\x02'\x06<\x14"
p486
tp487
Rp488
sg444
g109
(g445
g111
Ntp489
Rp490
(dp491
g449
S'2.2.0.34'
p492
sg451
g452
sg453
(lp493
sg455
(dp494
g457
(dp495
g459
g492
sssg460
I2
sg461
I2
sg462
I1048576
sg463
(lp496
F100.0
aF0.0
aF18.2
aF0.0
aF0.0
aF11.1
aF11.1
aF0.0
aF0.0
aF20.0
aF0.0
aF0.0
aF20.0
aF0.0
aF0.0
aF0.0
aF0.0
aF0.0
aF0.0
aF0.0
aF0.0
aF0.0
aF0.0
aF0.0
aF0.0
aF12.5
aF0.0
aF0.0
aF0.0
aF10.0
aF0.0
aF0.0
aF0.0
aF11.1
aF0.0
aF0.0
aF0.0
aF10.0
aF10.0
aF0.0
asg465
g466
sg469
g457
sg470
(lp497
I0
aI1
asg472
I10002
sg473
g474
sg475
(dp498
sg477
g478
sg479
Nsg480
Nsg481
(lp499
I20
aI20
asg483
Nsg484
I10
sbssI10003
(dp500
g107
I01
sg439
g440
(S"\x07\xe4\n\x1b\x00\x02'\x06<\x14"
p501
tp502
Rp503
sg444
g109
(g445
g111
Ntp504
Rp505
(dp506
g449
S'2.2.0.66'
p507
sg451
g452
sg453
(lp508
sg455
(dp509
g457
(dp510
g459
g507
sssg460
I2
sg461
I2
sg462
I1048576
sg463
(lp511
F100.0
aF11.1
aF0.0
aF10.0
aF0.0
aF0.0
aF11.1
aF0.0
aF0.0
aF11.1
aF0.0
aF0.0
aF0.0
aF0.0
aF0.0
aF0.0
aF0.0
aF11.1
aF0.0
aF0.0
aF0.0
aF0.0
aF0.0
aF0.0
aF0.0
aF0.0
aF11.1
aF0.0
aF0.0
aF10.0
aF0.0
aF0.0
aF0.0
aF0.0
aF10.0
aF0.0
aF11.1
aF0.0
aF0.0
aF10.0
asg465
g466
sg469
g457
sg470
(lp512
I0
aI1
asg472
I10003
sg473
g474
sg475
(dp513
sg477
g478
sg479
Nsg480
Nsg481
(lp514
I20
aI20
asg483
Nsg484
I10
sbssI10004
(dp515
g107
I01
sg439
g440
(S"\x07\xe4\n\x1b\x00\x02'\x06<\x14"
p516
tp517
Rp518
sg444
g109
(g445
g111
Ntp519
Rp520
(dp521
g449
S'2.2.0.98'
p522
sg451
g452
sg453
(lp523
sg455
(dp524
g457
(dp525
g459
g522
sssg460
I2
sg461
I2
sg462
I1048576
sg463
(lp526
F100.0
aF11.1
aF11.1
aF18.2
aF0.0
aF0.0
aF0.0
aF0.0
aF0.0
aF11.1
aF12.5
aF0.0
aF10.0
aF10.0
aF10.0
aF0.0
aF0.0
aF11.1
aF0.0
aF0.0
aF0.0
aF0.0
aF0.0
aF10.0
aF0.0
aF10.0
aF0.0
aF11.1
aF0.0
aF11.1
aF12.5
aF0.0
aF0.0
aF10.0
aF0.0
aF0.0
aF10.0
aF0.0
aF0.0
aF11.1
asg465
g466
sg469
g457
sg470
(lp527
I0
aI1
asg472
I10004
sg473
g474
sg475
(dp528
sg477
g478
sg479
Nsg480
Nsg481
(lp529
I20
aI20
asg483
Nsg484
I10
sbssI10005
(dp530
g107
I01
sg439
g440
(S"\x07\xe4\n\x1b\x00\x02'\x06<\x14"
p531
tp532
Rp533
sg444
g109
(g445
g111
Ntp534
Rp535
(dp536
g449
S'2.2.0.130'
p537
sg451
g452
sg453
(lp538
sg455
(dp539
g457
(dp540
g459
g537
sssg460
I2
sg461
I2
sg462
I1048576
sg463
(lp541
F100.0
aF10.0
aF10.0
aF12.5
aF10.0
aF11.1
aF0.0
aF10.0
aF0.0
aF0.0
aF10.0
aF0.0
aF0.0
aF0.0
aF0.0
aF11.1
aF0.0
aF0.0
aF11.1
aF0.0
aF0.0
aF0.0
aF10.0
aF11.1
aF0.0
aF0.0
aF0.0
aF0.0
aF0.0
aF0.0
aF0.0
aF10.0
aF0.0
aF11.1
aF0.0
aF0.0
aF11.1
aF0.0
aF0.0
aF0.0
asg465
g466
sg469
g457
sg470
(lp542
I0
aI1
asg472
I10005
sg473
g474
sg475
(dp543
sg477
g478
sg479
Nsg480
Nsg481
(lp544
I20
aI20
asg483
Nsg484
I10
sbssI10006
(dp545
g107
I01
sg439
g440
(S"\x07\xe4\n\x1b\x00\x02'\x06<\x14"
p546
tp547
Rp548
sg444
g109
(g445
g111
Ntp549
Rp550
(dp551
g449
S'2.2.0.162'
p552
sg451
g452
sg453
(lp553
sg455
(dp554
g457
(dp555
g459
g552
sssg460
I2
sg461
I2
sg462
I1048576
sg463
(lp556
F100.0
aF10.0
aF18.2
aF0.0
aF0.0
aF0.0
aF0.0
aF0.0
aF0.0
aF10.0
aF0.0
aF20.0
aF0.0
aF11.1
aF0.0
aF0.0
aF10.0
aF0.0
aF0.0
aF0.0
aF0.0
aF0.0
aF0.0
aF0.0
aF0.0
aF0.0
aF0.0
aF10.0
aF10.0
aF0.0
aF0.0
aF0.0
aF0.0
aF0.0
aF11.1
aF0.0
aF11.1
aF11.1
aF0.0
aF0.0
asg465
g466
sg469
g457
sg470
(lp557
I0
aI1
asg472
I10006
sg473
g474
sg475
(dp558
sg477
g478
sg479
Nsg480
Nsg481
(lp559
I20
aI20
asg483
Nsg484
I10
sbssI10007
(dp560
g107
I01
sg439
g440
(S"\x07\xe4\n\x1b\x00\x02'\x06<\x14"
p561
tp562
Rp563
sg444
g109
(g445
g111
Ntp564
Rp565
(dp566
g449
S'2.2.0.194'
p567
sg451
g452
sg453
(lp568
sg455
(dp569
g457
(dp570
g459
g567
sssg460
I2
sg461
I2
sg462
I1048576
sg463
(lp571
F100.0
aF0.0
aF10.0
aF0.0
aF0.0
aF0.0
aF0.0
aF11.1
aF10.0
aF0.0
aF0.0
aF0.0
aF0.0
aF0.0
aF11.1
aF0.0
aF10.0
aF10.0
aF0.0
aF0.0
aF0.0
aF10.0
aF0.0
aF0.0
aF11.1
aF0.0
aF0.0
aF0.0
aF0.0
aF0.0
aF0.0
aF0.0
aF11.1
aF0.0
aF10.0
aF0.0
aF0.0
aF0.0
aF0.0
aF0.0
asg465
g466
sg469
g457
sg470
(lp572
I0
aI1
asg472
I10007
sg473
g474
sg475
(dp573
sg477
g478
sg479
Nsg480
Nsg481
(lp574
I20
aI20
asg483
Nsg484
I10
sbssI10008
(dp575
g107
I01
sg439
g440
(S"\x07\xe4\n\x1b\x00\x02'\x06<\x14"
p576
tp577
Rp578
sg444
g109
(g445
g111
Ntp579
Rp580
(dp581
g449
S'2.2.0.226'
p582
sg451
g452
sg453
(lp583
sg455
(dp584
g457
(dp585
g459
g582
sssg460
I2
sg461
I2
sg462
I1048576
sg463
(lp586
F100.0
aF11.1
aF10.0
aF0.0
aF0.0
aF0.0
aF10.0
aF0.0
aF10.0
aF0.0
aF0.0
aF0.0
aF0.0
aF0.0
aF0.0
aF0.0
aF0.0
aF11.1
aF0.0
aF11.1
aF0.0
aF11.1
aF0.0
aF0.0
aF0.0
aF0.0
aF0.0
aF0.0
aF0.0
aF0.0
aF0.0
aF0.0
aF0.0
aF20.0
aF0.0
aF11.1
aF0.0
aF0.0
aF11.1
aF0.0
asg465
g466
sg469
g457
sg470
(lp587
I0
aI1
asg472
I10008
sg473
g474
sg475
(dp588
sg477
g478
sg479
Nsg480
Nsg481
(lp589
I20
aI20
asg483
Nsg484
I10
sbssI10009
(dp590
g107
I01
sg439
g440
(S"\x07\xe4\n\x1b\x00\x02'\x06<\x14"
p591
tp592
Rp593
sg444
g109
(g445
g111
Ntp594
Rp595
(dp596
g449
S'2.2.1.2'
p597
sg451
g452
sg453
(lp598
sg455
(dp599
g457
(dp600
g459
g597
sssg460
I2
sg461
I2
sg462
I1048576
sg463
(lp601
F100.0
aF10.0
aF20.0
aF0.0
aF0.0
aF20.0
aF0.0
aF10.0
aF0.0
aF0.0
aF0.0
aF0.0
aF0.0
aF0.0
aF11.1
aF0.0
aF0.0
aF0.0
aF11.1
aF0.0
aF0.0
aF10.0
aF0.0
aF0.0
aF11.1
aF10.0
aF12.5
aF0.0
aF0.0
aF0.0
aF0.0
aF20.0
aF0.0
aF11.1
aF0.0
aF0.0
aF11.1
aF0.0
aF10.0
aF10.0
asg465
g466
sg469
g457
sg470
(lp602
I0
aI1
asg472
I10009
sg473
g474
sg475
(dp603
sg477
g478
sg479
Nsg480
Nsg481
(lp604
I20
aI20
asg483
Nsg484
I10
sbssI10010
(dp605
g107
I01
sg439
g440
(S"\x07\xe4\n\x1b\x00\x02'\x06<\x14"
p606
tp607
Rp608
sg444
g109
(g445
g111
Ntp609
Rp610
(dp611
g449
S'2.2.1.34'
p612
sg451
g452
sg453
(lp613
sg455
(dp614
g457
(dp615
g459
g612
sssg460
I2
sg461
I2
sg462
I1048576
sg463
(lp616
F100.0
aF0.0
aF10.0
aF18.2
aF0.0
aF0.0
aF11.1
aF0.0
aF0.0
aF0.0
aF11.1
aF0.0
aF0.0
aF11.1
aF0.0
aF11.1
aF0.0
aF0.0
aF0.0
aF10.0
aF0.0
aF0.0
aF0.0
aF0.0
aF0.0
aF0.0
aF0.0
aF0.0
aF10.0
aF10.0
aF12.5
aF0.0
aF0.0
aF0.0
aF0.0
aF0.0
aF11.1
aF0.0
aF0.0
aF0.0
asg465
g466
sg469
g457
sg470
(lp617
I0
aI1
asg472
I10010
sg473
g474
sg475
(dp618
sg477
g478
sg479
Nsg480
Nsg481
(lp619
I20
aI20
asg483
Nsg484
I10
sbssI10011
(dp620
g107
I01
sg439
g440
(S"\x07\xe4\n\x1b\x00\x02'\x06<\x14"
p621
tp622
Rp623
sg444
g109
(g445
g111
Ntp624
Rp625
(dp626
g449
S'2.2.1.66'
p627
sg451
g452
sg453
(lp628
sg455
(dp629
g457
(dp630
g459
g627
sssg460
I2
sg461
I2
sg462
I1048576
sg463
(lp631
F100.0
aF0.0
aF10.0
aF0.0
aF11.1
aF11.1
aF0.0
aF11.1
aF0.0
aF0.0
aF0.0
aF20.0
aF0.0
aF0.0
aF11.1
aF0.0
aF0.0
aF0.0
aF0.0
aF0.0
aF0.0
aF0.0
aF0.0
aF18.2
aF0.0
aF0.0
aF0.0
aF0.0
aF0.0
aF22.2
aF0.0
aF0.0
aF0.0
aF10.0
aF0.0
aF0.0
aF0.0
aF0.0
aF0.0
aF0.0
asg465
g466
sg469
g457
sg470
(lp632
I0
aI1
asg472
I10011
sg473
g474
sg475
(dp633
sg477
g478
sg479
Nsg480
Nsg481
(lp634
I20
aI20
asg483
Nsg484
I10
sbssI10012
(dp635
g107
I01
sg439
g440
(S"\x07\xe4\n\x1b\x00\x02'\x06<\x14"
p636
tp637
Rp638
sg444
g109
(g445
g111
Ntp639
Rp640
(dp641
g449
S'2.2.1.98'
p642
sg451
g452
sg453
(lp643
sg455
(dp644
g457
(dp645
g459
g642
sssg460
I2
sg461
I2
sg462
I1048576
sg463
(lp646
F100.0
aF11.1
aF27.3
aF10.0
aF0.0
aF0.0
aF0.0
aF0.0
aF0.0
aF0.0
aF0.0
aF0.0
aF0.0
aF11.1
aF0.0
aF10.0
aF10.0
aF0.0
aF0.0
aF0.0
aF0.0
aF11.1
aF0.0
aF0.0
aF0.0
aF0.0
aF10.0
aF0.0
aF11.1
aF0.0
aF10.0
aF0.0
aF0.0
aF0.0
aF0.0
aF0.0
aF11.1
aF0.0
aF0.0
aF0.0
asg465
g466
sg469
g457
sg470
(lp647
I0
aI1
asg472
I10012
sg473
g474
sg475
(dp648
sg477
g478
sg479
Nsg480
Nsg481
(lp649
I20
aI20
asg483
Nsg484
I10
sbssI10013
(dp650
g107
I01
sg439
g440
(S"\x07\xe4\n\x1b\x00\x02'\x06<\x14"
p651
tp652
Rp653
sg444
g109
(g445
g111
Ntp654
Rp655
(dp656
g449
S'2.2.1.130'
p657
sg451
g452
sg453
(lp658
sg455
(dp659
g457
(dp660
g459
g657
sssg460
I2
sg461
I2
sg462
I1048576
sg463
(lp661
F100.0
aF18.2
aF10.0
aF0.0
aF10.0
aF0.0
aF11.1
aF0.0
aF0.0
aF10.0
aF0.0
aF0.0
aF0.0
aF0.0
aF0.0
aF11.1
aF0.0
aF0.0
aF0.0
aF0.0
aF0.0
aF0.0
aF0.0
aF0.0
aF11.1
aF0.0
aF0.0
aF0.0
aF0.0
aF0.0
aF0.0
aF20.0
aF0.0
aF0.0
aF0.0
aF0.0
aF0.0
aF11.1
aF0.0
aF0.0
asg465
g466
sg469
g457
sg470
(lp662
I0
aI1
asg472
I10013
sg473
g474
sg475
(dp663
sg477
g478
sg479
Nsg480
Nsg481
(lp664
I20
aI20
asg483
Nsg484
I10
sbssI10014
(dp665
g107
I01
sg439
g440
(S"\x07\xe4\n\x1b\x00\x02'\x06<\x14"
p666
tp667
Rp668
sg444
g109
(g445
g111
Ntp669
Rp670
(dp671
g449
S'2.2.1.162'
p672
sg451
g452
sg453
(lp673
sg455
(dp674
g457
(dp675
g459
g672
sssg460
I2
sg461
I2
sg462
I1048576
sg463
(lp676
F100.0
aF0.0
aF0.0
aF11.1
aF0.0
aF0.0
aF11.1
aF10.0
aF0.0
aF11.1
aF0.0
aF11.1
aF0.0
aF0.0
aF11.1
aF0.0
aF0.0
aF11.1
aF0.0
aF11.1
aF0.0
aF0.0
aF0.0
aF0.0
aF0.0
aF0.0
aF11.1
aF0.0
aF0.0
aF0.0
aF0.0
aF11.1
aF0.0
aF0.0
aF0.0
aF11.1
aF0.0
aF0.0
aF0.0
aF0.0
asg465
g466
sg469
g457
sg470
(lp677
I0
aI1
asg472
I10014
sg473
g474
sg475
(dp678
sg477
g478
sg479
Nsg480
Nsg481
(lp679
I20
aI20
asg483
Nsg484
I10
sbssI10015
(dp680
g107
I01
sg439
g440
(S"\x07\xe4\n\x1b\x00\x02'\x06<\x14"
p681
tp682
Rp683
sg444
g109
(g445
g111
Ntp684
Rp685
(dp686
g449
S'2.2.1.194'
p687
sg451
g452
sg453
(lp688
sg455
(dp689
g457
(dp690
g459
g687
sssg460
I2
sg461
I2
sg462
I1048576
sg463
(lp691
F100.0
aF27.3
aF0.0
aF11.1
aF0.0
aF0.0
aF0.0
aF0.0
aF10.0
aF0.0
aF10.0
aF0.0
aF0.0
aF0.0
aF0.0
aF0.0
aF12.5
aF0.0
aF11.1
aF0.0
aF0.0
aF0.0
aF0.0
aF0.0
aF0.0
aF0.0
aF11.1
aF0.0
aF0.0
aF12.5
aF0.0
aF0.0
aF0.0
aF11.1
aF0.0
aF11.1
aF0.0
aF22.2
aF11.1
aF0.0
asg465
g466
sg469
g457
sg470
(lp692
I0
aI1
asg472
I10015
sg473
g474
sg475
(dp693
sg477
g478
sg479
Nsg480
Nsg481
(lp694
I20
aI20
asg483
Nsg484
I10
sbssI10016
(dp695
g107
I01
sg439
g440
(S"\x07\xe4\n\x1b\x00\x02'\x06<\x14"
p696
tp697
Rp698
sg444
g109
(g445
g111
Ntp699
Rp700
(dp701
g449
S'2.2.1.226'
p702
sg451
g452
sg453
(lp703
sg455
(dp704
g457
(dp705
g459
g702
sssg460
I2
sg461
I2
sg462
I1048576
sg463
(lp706
F100.0
aF0.0
aF0.0
aF0.0
aF11.1
aF10.0
aF11.1
aF0.0
aF11.1
aF0.0
aF0.0
aF0.0
aF0.0
aF20.0
aF0.0
aF20.0
aF0.0
aF0.0
aF0.0
aF0.0
aF0.0
aF0.0
aF0.0
aF0.0
aF0.0
aF0.0
aF0.0
aF0.0
aF10.0
aF10.0
aF0.0
aF11.1
aF0.0
aF11.1
aF0.0
aF0.0
aF0.0
aF0.0
aF0.0
aF0.0
asg465
g466
sg469
g457
sg470
(lp707
I0
aI1
asg472
I10016
sg473
g474
sg475
(dp708
sg477
g478
sg479
Nsg480
Nsg481
(lp709
I20
aI20
asg483
Nsg484
I10
sbssI10017
(dp710
g107
I01
sg439
g440
(S"\x07\xe4\n\x1b\x00\x02'\x06<\x14"
p711
tp712
Rp713
sg444
g109
(g445
g111
Ntp714
Rp715
(dp716
g449
S'2.2.2.2'
p717
sg451
g452
sg453
(lp718
sg455
(dp719
g457
(dp720
g459
g717
sssg460
I2
sg461
I2
sg462
I1048576
sg463
(lp721
F100.0
aF25.0
aF0.0
aF9.1
aF10.0
aF0.0
aF11.1
aF10.0
aF0.0
aF11.1
aF0.0
aF0.0
aF10.0
aF0.0
aF0.0
aF0.0
aF0.0
aF10.0
aF0.0
aF0.0
aF0.0
aF0.0
aF0.0
aF0.0
aF0.0
aF0.0
aF0.0
aF10.0
aF0.0
aF0.0
aF10.0
aF0.0
aF0.0
aF0.0
aF0.0
aF0.0
aF0.0
aF10.0
aF0.0
aF0.0
asg465
g466
sg469
g457
sg470
(lp722
I0
aI1
asg472
I10017
sg473
g474
sg475
(dp723
sg477
g478
sg479
Nsg480
Nsg481
(lp724
I20
aI20
asg483
Nsg484
I10
sbssI10018
(dp725
g107
I01
sg439
g440
(S"\x07\xe4\n\x1b\x00\x02'\x06<\x14"
p726
tp727
Rp728
sg444
g109
(g445
g111
Ntp729
Rp730
(dp731
g449
S'2.2.2.34'
p732
sg451
g452
sg453
(lp733
sg455
(dp734
g457
(dp735
g459
g732
sssg460
I2
sg461
I2
sg462
I1048576
sg463
(lp736
F100.0
aF27.3
aF10.0
aF0.0
aF0.0
aF0.0
aF11.1
aF0.0
aF0.0
aF0.0
aF0.0
aF0.0
aF11.1
aF20.0
aF0.0
aF0.0
aF0.0
aF0.0
aF0.0
aF0.0
aF0.0
aF0.0
aF11.1
aF0.0
aF0.0
aF0.0
aF11.1
aF0.0
aF0.0
aF0.0
aF0.0
aF11.1
aF0.0
aF11.1
aF0.0
aF10.0
aF0.0
aF0.0
aF0.0
aF10.0
asg465
g466
sg469
g457
sg470
(lp737
I0
aI1
asg472
I10018
sg473
g474
sg475
(dp738
sg477
g478
sg479
Nsg480
Nsg481
(lp739
I20
aI20
asg483
Nsg484
I10
sbssI10019
(dp740
g107
I01
sg439
g440
(S"\x07\xe4\n\x1b\x00\x02'\x06<\x14"
p741
tp742
Rp743
sg444
g109
(g445
g111
Ntp744
Rp745
(dp746
g449
S'2.2.2.66'
p747
sg451
g452
sg453
(lp748
sg455
(dp749
g457
(dp750
g459
g747
sssg460
I2
sg461
I2
sg462
I1048576
sg463
(lp751
F100.0
aF0.0
aF27.3
aF0.0
aF0.0
aF11.1
aF0.0
aF10.0
aF0.0
aF10.0
aF0.0
aF0.0
aF0.0
aF10.0
aF11.1
aF20.0
aF0.0
aF0.0
aF0.0
aF0.0
aF0.0
aF20.0
aF0.0
aF10.0
aF10.0
aF0.0
aF0.0
aF0.0
aF0.0
aF0.0
aF11.1
aF0.0
aF11.1
aF0.0
aF10.0
aF11.1
aF0.0
aF0.0
aF0.0
aF10.0
asg465
g466
sg469
g457
sg470
(lp752
I0
aI1
asg472
I10019
sg473
g474
sg475
(dp753
sg477
g478
sg479
Nsg480
Nsg481
(lp754
I20
aI20
asg483
Nsg484
I10
sbssI10020
(dp755
g107
I01
sg439
g440
(S"\x07\xe4\n\x1b\x00\x02'\x06<\x14"
p756
tp757
Rp758
sg444
g109
(g445
g111
Ntp759
Rp760
(dp761
g449
S'2.2.2.98'
p762
sg451
g452
sg453
(lp763
sg455
(dp764
g457
(dp765
g459
g762
sssg460
I2
sg461
I2
sg462
I1048576
sg463
(lp766
F100.0
aF20.0
aF11.1
aF0.0
aF0.0
aF0.0
aF0.0
aF0.0
aF0.0
aF0.0
aF0.0
aF0.0
aF0.0
aF0.0
aF10.0
aF11.1
aF0.0
aF0.0
aF10.0
aF10.0
aF0.0
aF0.0
aF12.5
aF0.0
aF0.0
aF0.0
aF10.0
aF10.0
aF0.0
aF0.0
aF0.0
aF10.0
aF10.0
aF10.0
aF0.0
aF0.0
aF0.0
aF20.0
aF0.0
aF0.0
asg465
g466
sg469
g457
sg470
(lp767
I0
aI1
asg472
I10020
sg473
g474
sg475
(dp768
sg477
g478
sg479
Nsg480
Nsg481
(lp769
I20
aI20
asg483
Nsg484
I10
sbssI10021
(dp770
g107
I01
sg439
g440
(S"\x07\xe4\n\x1b\x00\x02'\x06<\x14"
p771
tp772
Rp773
sg444
g109
(g445
g111
Ntp774
Rp775
(dp776
g449
S'2.2.2.3'
p777
sg451
g452
sg453
(lp778
I1
aI2
aI3
aI4
aI5
aI6
aI7
aI8
aI9
aI10
aI11
aI12
aI13
aI14
aI15
aI16
asg455
(dp779
g457
(dp780
g459
g777
sssg460
I2
sg461
I2
sg462
I1048576
sg463
(lp781
F100.0
aF0.0
aF11.1
aF22.2
aF18.2
aF0.0
aF10.0
aF0.0
aF11.1
aF0.0
aF0.0
aF0.0
aF0.0
aF0.0
aF0.0
aF11.1
aF11.1
aF10.0
aF10.0
aF0.0
aF0.0
aF10.0
aF0.0
aF11.1
aF0.0
aF0.0
aF0.0
aF18.2
aF0.0
aF10.0
aF0.0
aF0.0
aF0.0
aF0.0
aF0.0
aF0.0
aF0.0
aF0.0
aF0.0
aF0.0
asg465
g466
sg469
g457
sg470
(lp782
I0
aI1
asg472
I10021
sg473
S'nfvi'
p783
sg475
(dp784
sg477
g478
sg479
Nsg480
Nsg481
(lp785
I20
aI20
asg483
Nsg484
I10
sbssI10022
(dp786
g107
I01
sg439
g440
(S"\x07\xe4\n\x1b\x00\x02'\x06<\x14"
p787
tp788
Rp789
sg444
g109
(g445
g111
Ntp790
Rp791
(dp792
g449
S'2.2.2.4'
p793
sg451
g452
sg453
(lp794
I1
aI2
aI3
aI4
aI5
aI6
aI7
aI8
aI9
aI10
aI11
aI12
aI13
aI14
aI15
aI16
asg455
(dp795
g457
(dp796
g459
g793
sssg460
I2
sg461
I2
sg462
I1048576
sg463
(lp797
F100.0
aF0.0
aF0.0
aF22.2
aF0.0
aF11.1
aF0.0
aF12.5
aF0.0
aF0.0
aF10.0
aF10.0
aF11.1
aF0.0
aF10.0
aF0.0
aF0.0
aF0.0
aF0.0
aF0.0
aF0.0
aF0.0
aF0.0
aF10.0
aF0.0
aF10.0
aF10.0
aF0.0
aF0.0
aF0.0
aF0.0
aF0.0
aF0.0
aF0.0
aF0.0
aF0.0
aF0.0
aF0.0
aF0.0
aF0.0
asg465
g466
sg469
g457
sg470
(lp798
I0
aI1
asg472
I10022
sg473
g783
sg475
(dp799
sg477
g478
sg479
Nsg480
Nsg481
(lp800
I20
aI20
asg483
Nsg484
I10
sbssI10023
(dp801
g107
I01
sg439
g440
(S"\x07\xe4\n\x1b\x00\x02'\x06<\x14"
p802
tp803
Rp804
sg444
g109
(g445
g111
Ntp805
Rp806
(dp807
g449
S'2.2.2.5'
p808
sg451
g452
sg453
(lp809
I1
aI2
aI3
aI4
aI5
aI6
aI7
aI8
aI9
aI10
aI11
aI12
aI13
aI14
aI15
aI16
asg455
(dp810
g457
(dp811
g459
g808
sssg460
I2
sg461
I2
sg462
I1048576
sg463
(lp812
F100.0
aF0.0
aF10.0
aF0.0
aF0.0
aF0.0
aF10.0
aF0.0
aF11.1
aF20.0
aF0.0
aF0.0
aF0.0
aF0.0
aF0.0
aF10.0
aF0.0
aF0.0
aF11.1
aF0.0
aF0.0
aF0.0
aF0.0
aF0.0
aF0.0
aF0.0
aF0.0
aF11.1
aF0.0
aF11.1
aF0.0
aF11.1
aF0.0
aF0.0
aF0.0
aF0.0
aF0.0
aF0.0
aF11.1
aF11.1
asg465
g466
sg469
g457
sg470
(lp813
I0
aI1
asg472
I10023
sg473
g783
sg475
(dp814
sg477
g478
sg479
Nsg480
Nsg481
(lp815
I20
aI20
asg483
Nsg484
I10
sbssI10024
(dp816
g107
I01
sg439
g440
(S"\x07\xe4\n\x1b\x00\x02'\x06<\x14"
p817
tp818
Rp819
sg444
g109
(g445
g111
Ntp820
Rp821
(dp822
g449
S'2.2.2.6'
p823
sg451
g452
sg453
(lp824
I1
aI2
aI3
aI4
aI5
aI6
aI7
aI8
aI9
aI10
aI11
aI12
aI13
aI14
aI15
aI16
asg455
(dp825
g457
(dp826
g459
g823
sssg460
I2
sg461
I2
sg462
I1048576
sg463
(lp827
F100.0
aF12.5
aF18.2
aF0.0
aF0.0
aF0.0
aF11.1
aF11.1
aF0.0
aF10.0
aF0.0
aF0.0
aF0.0
aF20.0
aF0.0
aF0.0
aF20.0
aF0.0
aF10.0
aF10.0
aF0.0
aF0.0
aF0.0
aF0.0
aF0.0
aF11.1
aF0.0
aF0.0
aF10.0
aF0.0
aF0.0
aF0.0
aF0.0
aF0.0
aF0.0
aF0.0
aF0.0
aF0.0
aF0.0
aF20.0
asg465
g466
sg469
g457
sg470
(lp828
I0
aI1
asg472
I10024
sg473
g783
sg475
(dp829
sg477
g478
sg479
Nsg480
Nsg481
(lp830
I20
aI20
asg483
Nsg484
I10
sbssI10025
(dp831
g107
I01
sg439
g440
(S"\x07\xe4\n\x1b\x00\x02'\x06<\x14"
p832
tp833
Rp834
sg444
g109
(g445
g111
Ntp835
Rp836
(dp837
g449
S'2.2.2.7'
p838
sg451
g452
sg453
(lp839
I1
aI2
aI3
aI4
aI5
aI6
aI7
aI8
aI9
aI10
aI11
aI12
aI13
aI14
aI15
aI16
asg455
(dp840
g457
(dp841
g459
g838
sssg460
I2
sg461
I2
sg462
I1048576
sg463
(lp842
F100.0
aF0.0
aF0.0
aF10.0
aF22.2
aF10.0
aF0.0
aF0.0
aF0.0
aF11.1
aF0.0
aF0.0
aF0.0
aF0.0
aF0.0
aF0.0
aF0.0
aF0.0
aF0.0
aF0.0
aF0.0
aF11.1
aF22.2
aF0.0
aF0.0
aF20.0
aF0.0
aF0.0
aF0.0
aF0.0
aF0.0
aF11.1
aF0.0
aF10.0
aF0.0
aF0.0
aF0.0
aF0.0
aF10.0
aF0.0
asg465
g466
sg469
g457
sg470
(lp843
I0
aI1
asg472
I10025
sg473
g783
sg475
(dp844
sg477
g478
sg479
Nsg480
Nsg481
(lp845
I20
aI20
asg483
Nsg484
I10
sbssI10026
(dp846
g107
I01
sg439
g440
(S"\x07\xe4\n\x1b\x00\x02'\x06<\x14"
p847
tp848
Rp849
sg444
g109
(g445
g111
Ntp850
Rp851
(dp852
g449
S'2.2.2.8'
p853
sg451
g452
sg453
(lp854
I1
aI2
aI3
aI4
aI5
aI6
aI7
aI8
aI9
aI10
aI11
aI12
aI13
aI14
aI15
aI16
asg455
(dp855
g457
(dp856
g459
g853
sssg460
I2
sg461
I2
sg462
I1048576
sg463
(lp857
F100.0
aF0.0
aF10.0
aF0.0
aF0.0
aF0.0
aF10.0
aF0.0
aF0.0
aF0.0
aF0.0
aF11.1
aF0.0
aF30.0
aF10.0
aF0.0
aF0.0
aF0.0
aF0.0
aF0.0
aF0.0
aF0.0
aF0.0
aF0.0
aF0.0
aF11.1
aF10.0
aF0.0
aF0.0
aF0.0
aF0.0
aF0.0
aF0.0
aF0.0
aF10.0
aF0.0
aF10.0
aF0.0
aF0.0
aF0.0
asg465
g466
sg469
g457
sg470
(lp858
I0
aI1
asg472
I10026
sg473
g783
sg475
(dp859
sg477
g478
sg479
Nsg480
Nsg481
(lp860
I20
aI20
asg483
Nsg484
I10
sbssI10027
(dp861
g107
I01
sg439
g440
(S"\x07\xe4\n\x1b\x00\x02'\x06<\x14"
p862
tp863
Rp864
sg444
g109
(g445
g111
Ntp865
Rp866
(dp867
g449
S'2.2.2.9'
p868
sg451
g452
sg453
(lp869
I1
aI2
aI3
aI4
aI5
aI6
aI7
aI8
aI9
aI10
aI11
aI12
aI13
aI14
aI15
aI16
asg455
(dp870
g457
(dp871
g459
g868
sssg460
I2
sg461
I2
sg462
I1048576
sg463
(lp872
F100.0
aF30.8
aF0.0
aF0.0
aF0.0
aF11.1
aF0.0
aF0.0
aF0.0
aF0.0
aF10.0
aF10.0
aF0.0
aF0.0
aF0.0
aF0.0
aF0.0
aF10.0
aF11.1
aF0.0
aF0.0
aF12.5
aF0.0
aF11.1
aF0.0
aF0.0
aF0.0
aF11.1
aF0.0
aF0.0
aF0.0
aF0.0
aF11.1
aF0.0
aF12.5
aF0.0
aF0.0
aF0.0
aF11.1
aF0.0
asg465
g466
sg469
g457
sg470
(lp873
I0
aI1
asg472
I10027
sg473
g783
sg475
(dp874
sg477
g478
sg479
Nsg480
Nsg481
(lp875
I20
aI20
asg483
Nsg484
I10
sbssI10028
(dp876
g107
I01
sg439
g440
(S"\x07\xe4\n\x1b\x00\x02'\x06<\x14"
p877
tp878
Rp879
sg444
g109
(g445
g111
Ntp880
Rp881
(dp882
g449
S'2.2.2.10'
p883
sg451
g452
sg453
(lp884
I1
aI2
aI3
aI4
aI5
aI6
aI7
aI8
aI9
aI10
aI11
aI12
aI13
aI14
aI15
aI16
asg455
(dp885
g457
(dp886
g459
g883
sssg460
I2
sg461
I2
sg462
I1048576
sg463
(lp887
F100.0
aF10.0
aF18.2
aF0.0
aF0.0
aF11.1
aF0.0
aF0.0
aF0.0
aF0.0
aF0.0
aF0.0
aF0.0
aF0.0
aF10.0
aF0.0
aF0.0
aF0.0
aF0.0
aF11.1
aF0.0
aF0.0
aF0.0
aF0.0
aF0.0
aF0.0
aF10.0
aF0.0
aF0.0
aF20.0
aF0.0
aF0.0
aF0.0
aF0.0
aF0.0
aF12.5
aF11.1
aF10.0
aF0.0
aF0.0
asg465
g466
sg469
g457
sg470
(lp888
I0
aI1
asg472
I10028
sg473
g783
sg475
(dp889
sg477
g478
sg479
Nsg480
Nsg481
(lp890
I20
aI20
asg483
Nsg484
I10
sbssI10029
(dp891
g107
I01
sg439
g440
(S"\x07\xe4\n\x1b\x00\x02'\x06<\x14"
p892
tp893
Rp894
sg444
g109
(g445
g111
Ntp895
Rp896
(dp897
g449
S'2.2.2.11'
p898
sg451
g452
sg453
(lp899
I1
aI2
aI3
aI4
aI5
aI6
aI7
aI8
aI9
aI10
aI11
aI12
aI13
aI14
aI15
aI16
asg455
(dp900
g457
(dp901
g459
g898
sssg460
I2
sg461
I2
sg462
I1048576
sg463
(lp902
F100.0
aF11.1
aF0.0
aF0.0
aF22.2
aF0.0
aF0.0
aF0.0
aF0.0
aF0.0
aF0.0
aF0.0
aF0.0
aF0.0
aF0.0
aF0.0
aF0.0
aF0.0
aF0.0
aF11.1
aF0.0
aF0.0
aF0.0
aF0.0
aF20.0
aF10.0
aF0.0
aF0.0
aF0.0
aF11.1
aF0.0
aF0.0
aF0.0
aF11.1
aF0.0
aF0.0
aF0.0
aF0.0
aF11.1
aF0.0
asg465
g466
sg469
g457
sg470
(lp903
I0
aI1
asg472
I10029
sg473
g783
sg475
(dp904
sg477
g478
sg479
Nsg480
Nsg481
(lp905
I20
aI20
asg483
Nsg484
I10
sbssI10030
(dp906
g107
I01
sg439
g440
(S"\x07\xe4\n\x1b\x00\x02'\x06<\x14"
p907
tp908
Rp909
sg444
g109
(g445
g111
Ntp910
Rp911
(dp912
g449
S'2.2.2.12'
p913
sg451
g452
sg453
(lp914
I1
aI2
aI3
aI4
aI5
aI6
aI7
aI8
aI9
aI10
aI11
aI12
aI13
aI14
aI15
aI16
asg455
(dp915
g457
(dp916
g459
g913
sssg460
I2
sg461
I2
sg462
I1048576
sg463
(lp917
F100.0
aF0.0
aF11.1
aF10.0
aF11.1
aF0.0
aF0.0
aF0.0
aF0.0
aF20.0
aF0.0
aF0.0
aF0.0
aF0.0
aF12.5
aF11.1
aF0.0
aF11.1
aF0.0
aF0.0
aF0.0
aF11.1
aF0.0
aF0.0
aF0.0
aF0.0
aF12.5
aF0.0
aF11.1
aF10.0
aF0.0
aF10.0
aF0.0
aF0.0
aF0.0
aF0.0
aF0.0
aF11.1
aF0.0
aF0.0
asg465
g466
sg469
g457
sg470
(lp918
I0
aI1
asg472
I10030
sg473
g783
sg475
(dp919
sg477
g478
sg479
Nsg480
Nsg481
(lp920
I20
aI20
asg483
Nsg484
I10
sbssI10031
(dp921
g107
I01
sg439
g440
(S"\x07\xe4\n\x1b\x00\x02'\x06<\x14"
p922
tp923
Rp924
sg444
g109
(g445
g111
Ntp925
Rp926
(dp927
g449
S'2.2.2.13'
p928
sg451
g452
sg453
(lp929
I1
aI2
aI3
aI4
aI5
aI6
aI7
aI8
aI9
aI10
aI11
aI12
aI13
aI14
aI15
aI16
asg455
(dp930
g457
(dp931
g459
g928
sssg460
I2
sg461
I2
sg462
I1048576
sg463
(lp932
F100.0
aF20.0
aF0.0
aF25.0
aF11.1
aF0.0
aF0.0
aF0.0
aF0.0
aF0.0
aF0.0
aF22.2
aF10.0
aF0.0
aF0.0
aF0.0
aF0.0
aF0.0
aF0.0
aF0.0
aF0.0
aF10.0
aF0.0
aF0.0
aF0.0
aF0.0
aF0.0
aF10.0
aF0.0
aF0.0
aF11.1
aF0.0
aF0.0
aF11.1
aF0.0
aF10.0
aF0.0
aF0.0
aF0.0
aF0.0
asg465
g466
sg469
g457
sg470
(lp933
I0
aI1
asg472
I10031
sg473
g783
sg475
(dp934
sg477
g478
sg479
Nsg480
Nsg481
(lp935
I20
aI20
asg483
Nsg484
I10
sbssI10032
(dp936
g107
I01
sg439
g440
(S"\x07\xe4\n\x1b\x00\x02'\x06<\x14"
p937
tp938
Rp939
sg444
g109
(g445
g111
Ntp940
Rp941
(dp942
g449
S'2.2.2.14'
p943
sg451
g452
sg453
(lp944
I1
aI2
aI3
aI4
aI5
aI6
aI7
aI8
aI9
aI10
aI11
aI12
aI13
aI14
aI15
aI16
asg455
(dp945
g457
(dp946
g459
g943
sssg460
I2
sg461
I2
sg462
I1048576
sg463
(lp947
F100.0
aF0.0
aF0.0
aF27.3
aF0.0
aF20.0
aF11.1
aF0.0
aF0.0
aF0.0
aF0.0
aF0.0
aF10.0
aF11.1
aF0.0
aF0.0
aF0.0
aF0.0
aF10.0
aF0.0
aF0.0
aF20.0
aF30.0
aF0.0
aF0.0
aF10.0
aF0.0
aF0.0
aF10.0
aF10.0
aF0.0
aF11.1
aF0.0
aF11.1
aF11.1
aF0.0
aF0.0
aF0.0
aF0.0
aF0.0
asg465
g466
sg469
g457
sg470
(lp948
I0
aI1
asg472
I10032
sg473
g783
sg475
(dp949
sg477
g478
sg479
Nsg480
Nsg481
(lp950
I20
aI20
asg483
Nsg484
I10
sbssI10033
(dp951
g107
I01
sg439
g440
(S"\x07\xe4\n\x1b\x00\x02'\x06<\x14"
p952
tp953
Rp954
sg444
g109
(g445
g111
Ntp955
Rp956
(dp957
g449
S'2.2.2.15'
p958
sg451
g452
sg453
(lp959
I1
aI2
aI3
aI4
aI5
aI6
aI7
aI8
aI9
aI10
aI11
aI12
aI13
aI14
aI15
aI16
asg455
(dp960
g457
(dp961
g459
g958
sssg460
I2
sg461
I2
sg462
I1048576
sg463
(lp962
F100.0
aF0.0
aF0.0
aF10.0
aF11.1
aF0.0
aF0.0
aF0.0
aF11.1
aF0.0
aF0.0
aF11.1
aF0.0
aF11.1
aF0.0
aF0.0
aF0.0
aF0.0
aF0.0
aF11.1
aF0.0
aF0.0
aF0.0
aF0.0
aF0.0
aF0.0
aF0.0
aF0.0
aF11.1
aF10.0
aF0.0
aF0.0
aF0.0
aF0.0
aF0.0
aF10.0
aF0.0
aF0.0
aF11.1
aF11.1
asg465
g466
sg469
g457
sg470
(lp963
I0
aI1
asg472
I10033
sg473
g783
sg475
(dp964
sg477
g478
sg479
Nsg480
Nsg481
(lp965
I20
aI20
asg483
Nsg484
I10
sbssI10034
(dp966
g107
I01
sg439
g440
(S"\x07\xe4\n\x1b\x00\x02'\x06<\x14"
p967
tp968
Rp969
sg444
g109
(g445
g111
Ntp970
Rp971
(dp972
g449
S'2.2.2.16'
p973
sg451
g452
sg453
(lp974
I1
aI2
aI3
aI4
aI5
aI6
aI7
aI8
aI9
aI10
aI11
aI12
aI13
aI14
aI15
aI16
asg455
(dp975
g457
(dp976
g459
g973
sssg460
I2
sg461
I2
sg462
I1048576
sg463
(lp977
F100.0
aF0.0
aF0.0
aF18.2
aF11.1
aF0.0
aF0.0
aF11.1
aF0.0
aF0.0
aF0.0
aF10.0
aF0.0
aF0.0
aF22.2
aF0.0
aF0.0
aF0.0
aF0.0
aF0.0
aF0.0
aF0.0
aF0.0
aF0.0
aF10.0
aF0.0
aF11.1
aF0.0
aF0.0
aF0.0
aF11.1
aF20.0
aF0.0
aF0.0
aF0.0
aF0.0
aF0.0
aF0.0
aF0.0
aF10.0
asg465
g466
sg469
g457
sg470
(lp978
I0
aI1
asg472
I10034
sg473
g783
sg475
(dp979
sg477
g478
sg479
Nsg480
Nsg481
(lp980
I20
aI20
asg483
Nsg484
I10
sbssI10035
(dp981
g107
I01
sg439
g440
(S"\x07\xe4\n\x1b\x00\x02'\x06<\x14"
p982
tp983
Rp984
sg444
g109
(g445
g111
Ntp985
Rp986
(dp987
g449
S'2.2.2.17'
p988
sg451
g452
sg453
(lp989
I1
aI2
aI3
aI4
aI5
aI6
aI7
aI8
aI9
aI10
aI11
aI12
aI13
aI14
aI15
aI16
asg455
(dp990
g457
(dp991
g459
g988
sssg460
I2
sg461
I2
sg462
I1048576
sg463
(lp992
F100.0
aF11.1
aF20.0
aF0.0
aF0.0
aF0.0
aF0.0
aF0.0
aF0.0
aF0.0
aF0.0
aF11.1
aF11.1
aF0.0
aF0.0
aF10.0
aF11.1
aF10.0
aF0.0
aF10.0
aF0.0
aF11.1
aF0.0
aF0.0
aF0.0
aF20.0
aF0.0
aF10.0
aF0.0
aF0.0
aF0.0
aF0.0
aF0.0
aF0.0
aF0.0
aF0.0
aF0.0
aF10.0
aF11.1
aF0.0
asg465
g466
sg469
g457
sg470
(lp993
I0
aI1
asg472
I10035
sg473
g783
sg475
(dp994
sg477
g478
sg479
Nsg480
Nsg481
(lp995
I20
aI20
asg483
Nsg484
I10
sbssI10036
(dp996
g107
I01
sg439
g440
(S"\x07\xe4\n\x1b\x00\x02'\x06<\x14"
p997
tp998
Rp999
sg444
g109
(g445
g111
Ntp1000
Rp1001
(dp1002
g449
S'2.2.2.18'
p1003
sg451
g452
sg453
(lp1004
I1
aI2
aI3
aI4
aI5
aI6
aI7
aI8
aI9
aI10
aI11
aI12
aI13
aI14
aI15
aI16
asg455
(dp1005
g457
(dp1006
g459
g1003
sssg460
I2
sg461
I2
sg462
I1048576
sg463
(lp1007
F100.0
aF10.0
aF20.0
aF0.0
aF11.1
aF11.1
aF0.0
aF10.0
aF0.0
aF11.1
aF0.0
aF0.0
aF0.0
aF10.0
aF0.0
aF0.0
aF10.0
aF11.1
aF0.0
aF11.1
aF0.0
aF0.0
aF0.0
aF10.0
aF0.0
aF0.0
aF0.0
aF11.1
aF0.0
aF0.0
aF11.1
aF11.1
aF0.0
aF0.0
aF0.0
aF0.0
aF10.0
aF0.0
aF0.0
aF0.0
asg465
g466
sg469
g457
sg470
(lp1008
I0
aI1
asg472
I10036
sg473
g783
sg475
(dp1009
sg477
g478
sg479
Nsg480
Nsg481
(lp1010
I20
aI20
asg483
Nsg484
I10
sbssI10037
(dp1011
g107
I01
sg439
g440
(S"\x07\xe4\n\x1b\x00\x02'\x06<\x14"
p1012
tp1013
Rp1014
sg444
g109
(g445
g111
Ntp1015
Rp1016
(dp1017
g449
S'2.2.2.19'
p1018
sg451
g452
sg453
(lp1019
I1
aI2
aI3
aI4
aI5
aI6
aI7
aI8
aI9
aI10
aI11
aI12
aI13
aI14
aI15
aI16
asg455
(dp1020
g457
(dp1021
g459
g1018
sssg460
I2
sg461
I2
sg462
I1048576
sg463
(lp1022
F100.0
aF20.0
aF0.0
aF10.0
aF0.0
aF10.0
aF10.0
aF0.0
aF20.0
aF0.0
aF0.0
aF0.0
aF0.0
aF0.0
aF0.0
aF0.0
aF0.0
aF0.0
aF0.0
aF0.0
aF0.0
aF12.5
aF0.0
aF0.0
aF0.0
aF0.0
aF0.0
aF0.0
aF10.0
aF0.0
aF0.0
aF0.0
aF0.0
aF10.0
aF0.0
aF0.0
aF0.0
aF10.0
aF0.0
aF11.1
asg465
g466
sg469
g457
sg470
(lp1023
I0
aI1
asg472
I10037
sg473
g783
sg475
(dp1024
sg477
g478
sg479
Nsg480
Nsg481
(lp1025
I20
aI20
asg483
Nsg484
I10
sbssI10038
(dp1026
g107
I01
sg439
g440
(S"\x07\xe4\n\x1b\x00\x02'\x06<\x14"
p1027
tp1028
Rp1029
sg444
g109
(g445
g111
Ntp1030
Rp1031
(dp1032
g449
S'2.2.2.20'
p1033
sg451
g452
sg453
(lp1034
I1
aI2
aI3
aI4
aI5
aI6
aI7
aI8
aI9
aI10
aI11
aI12
aI13
aI14
aI15
aI16
asg455
(dp1035
g457
(dp1036
g459
g1033
sssg460
I2
sg461
I2
sg462
I1048576
sg463
(lp1037
F100.0
aF0.0
aF0.0
aF11.1
aF10.0
aF0.0
aF0.0
aF0.0
aF0.0
aF0.0
aF10.0
aF0.0
aF0.0
aF10.0
aF0.0
aF11.1
aF0.0
aF10.0
aF0.0
aF0.0
aF0.0
aF0.0
aF0.0
aF11.1
aF0.0
aF11.1
aF0.0
aF0.0
aF0.0
aF0.0
aF0.0
aF0.0
aF0.0
aF10.0
aF11.1
aF0.0
aF0.0
aF0.0
aF0.0
aF0.0
asg465
g466
sg469
g457
sg470
(lp1038
I0
aI1
asg472
I10038
sg473
g783
sg475
(dp1039
sg477
g478
sg479
Nsg480
Nsg481
(lp1040
I20
aI20
asg483
Nsg484
I10
sbssI10039
(dp1041
g107
I01
sg439
g440
(S"\x07\xe4\n\x1b\x00\x02'\x06<\x14"
p1042
tp1043
Rp1044
sg444
g109
(g445
g111
Ntp1045
Rp1046
(dp1047
g449
S'2.2.2.21'
p1048
sg451
g452
sg453
(lp1049
I1
aI2
aI3
aI4
aI5
aI6
aI7
aI8
aI9
aI10
aI11
aI12
aI13
aI14
aI15
aI16
asg455
(dp1050
g457
(dp1051
g459
g1048
sssg460
I2
sg461
I2
sg462
I1048576
sg463
(lp1052
F100.0
aF20.0
aF11.1
aF10.0
aF0.0
aF0.0
aF0.0
aF0.0
aF0.0
aF10.0
aF0.0
aF0.0
aF0.0
aF0.0
aF11.1
aF0.0
aF0.0
aF0.0
aF0.0
aF0.0
aF0.0
aF0.0
aF11.1
aF0.0
aF11.1
aF11.1
aF10.0
aF10.0
aF0.0
aF10.0
aF0.0
aF0.0
aF0.0
aF0.0
aF11.1
aF0.0
aF10.0
aF0.0
aF0.0
aF0.0
asg465
g466
sg469
g457
sg470
(lp1053
I0
aI1
asg472
I10039
sg473
g783
sg475
(dp1054
sg477
g478
sg479
Nsg480
Nsg481
(lp1055
I20
aI20
asg483
Nsg484
I10
sbssI10040
(dp1056
g107
I01
sg439
g440
(S"\x07\xe4\n\x1b\x00\x02'\x06<\x14"
p1057
tp1058
Rp1059
sg444
g109
(g445
g111
Ntp1060
Rp1061
(dp1062
g449
S'2.2.2.22'
p1063
sg451
g452
sg453
(lp1064
I1
aI2
aI3
aI4
aI5
aI6
aI7
aI8
aI9
aI10
aI11
aI12
aI13
aI14
aI15
aI16
asg455
(dp1065
g457
(dp1066
g459
g1063
sssg460
I2
sg461
I2
sg462
I1048576
sg463
(lp1067
F100.0
aF0.0
aF10.0
aF0.0
aF0.0
aF11.1
aF0.0
aF0.0
aF0.0
aF0.0
aF11.1
aF0.0
aF0.0
aF0.0
aF0.0
aF10.0
aF0.0
aF0.0
aF0.0
aF0.0
aF0.0
aF0.0
aF0.0
aF10.0
aF0.0
aF11.1
aF10.0
aF0.0
aF0.0
aF0.0
aF0.0
aF0.0
aF0.0
aF0.0
aF11.1
aF0.0
aF0.0
aF0.0
aF11.1
aF0.0
asg465
g466
sg469
g457
sg470
(lp1068
I0
aI1
asg472
I10040
sg473
g783
sg475
(dp1069
sg477
g478
sg479
Nsg480
Nsg481
(lp1070
I20
aI20
asg483
Nsg484
I10
sbssI10041
(dp1071
g107
I01
sg439
g440
(S"\x07\xe4\n\x1b\x00\x02'\x06<\x14"
p1072
tp1073
Rp1074
sg444
g109
(g445
g111
Ntp1075
Rp1076
(dp1077
g449
S'2.2.2.35'
p1078
sg451
g452
sg453
(lp1079
I1
aI2
aI3
aI4
aI5
aI6
aI7
aI8
aI9
aI10
aI11
aI12
aI13
aI14
aI15
aI16
asg455
(dp1080
g457
(dp1081
g459
g1078
sssg460
I2
sg461
I2
sg462
I1048576
sg463
(lp1082
F100.0
aF18.2
aF20.0
aF0.0
aF10.0
aF0.0
aF0.0
aF0.0
aF0.0
aF0.0
aF0.0
aF11.1
aF0.0
aF11.1
aF0.0
aF0.0
aF11.1
aF11.1
aF0.0
aF0.0
aF0.0
aF0.0
aF0.0
aF0.0
aF0.0
aF0.0
aF0.0
aF0.0
aF0.0
aF0.0
aF20.0
aF0.0
aF0.0
aF10.0
aF0.0
aF11.1
aF0.0
aF0.0
aF20.0
aF0.0
asg465
g466
sg469
g457
sg470
(lp1083
I0
aI1
asg472
I10041
sg473
g783
sg475
(dp1084
sg477
g478
sg479
Nsg480
Nsg481
(lp1085
I20
aI20
asg483
Nsg484
I10
sbssI10042
(dp1086
g107
I01
sg439
g440
(S"\x07\xe4\n\x1b\x00\x02'\x06<\x14"
p1087
tp1088
Rp1089
sg444
g109
(g445
g111
Ntp1090
Rp1091
(dp1092
g449
S'2.2.2.36'
p1093
sg451
g452
sg453
(lp1094
I1
aI2
aI3
aI4
aI5
aI6
aI7
aI8
aI9
aI10
aI11
aI12
aI13
aI14
aI15
aI16
asg455
(dp1095
g457
(dp1096
g459
g1093
sssg460
I2
sg461
I2
sg462
I1048576
sg463
(lp1097
F100.0
aF10.0
aF0.0
aF0.0
aF0.0
aF20.0
aF0.0
aF10.0
aF11.1
aF0.0
aF0.0
aF0.0
aF0.0
aF0.0
aF0.0
aF0.0
aF0.0
aF0.0
aF11.1
aF10.0
aF0.0
aF11.1
aF0.0
aF0.0
aF0.0
aF0.0
aF0.0
aF0.0
aF0.0
aF0.0
aF0.0
aF0.0
aF11.1
aF11.1
aF11.1
aF0.0
aF20.0
aF10.0
aF0.0
aF0.0
asg465
g466
sg469
g457
sg470
(lp1098
I0
aI1
asg472
I10042
sg473
g783
sg475
(dp1099
sg477
g478
sg479
Nsg480
Nsg481
(lp1100
I20
aI20
asg483
Nsg484
I10
sbssI10043
(dp1101
g107
I01
sg439
g440
(S"\x07\xe4\n\x1b\x00\x02'\x06<\x14"
p1102
tp1103
Rp1104
sg444
g109
(g445
g111
Ntp1105
Rp1106
(dp1107
g449
S'2.2.2.37'
p1108
sg451
g452
sg453
(lp1109
I1
aI2
aI3
aI4
aI5
aI6
aI7
aI8
aI9
aI10
aI11
aI12
aI13
aI14
aI15
aI16
asg455
(dp1110
g457
(dp1111
g459
g1108
sssg460
I2
sg461
I2
sg462
I1048576
sg463
(lp1112
F100.0
aF20.0
aF10.0
aF0.0
aF10.0
aF11.1
aF0.0
aF0.0
aF0.0
aF11.1
aF0.0
aF0.0
aF10.0
aF0.0
aF20.0
aF0.0
aF0.0
aF0.0
aF10.0
aF0.0
aF0.0
aF0.0
aF10.0
aF0.0
aF0.0
aF10.0
aF0.0
aF0.0
aF0.0
aF0.0
aF0.0
aF0.0
aF0.0
aF0.0
aF11.1
aF0.0
aF0.0
aF0.0
aF0.0
aF10.0
asg465
g466
sg469
g457
sg470
(lp1113
I0
aI1
asg472
I10043
sg473
g783
sg475
(dp1114
sg477
g478
sg479
Nsg480
Nsg481
(lp1115
I20
aI20
asg483
Nsg484
I10
sbssI10044
(dp1116
g107
I01
sg439
g440
(S"\x07\xe4\n\x1b\x00\x02'\x06<\x14"
p1117
tp1118
Rp1119
sg444
g109
(g445
g111
Ntp1120
Rp1121
(dp1122
g449
S'2.2.2.38'
p1123
sg451
g452
sg453
(lp1124
I1
aI2
aI3
aI4
aI5
aI6
aI7
aI8
aI9
aI10
aI11
aI12
aI13
aI14
aI15
aI16
asg455
(dp1125
g457
(dp1126
g459
g1123
sssg460
I2
sg461
I2
sg462
I1048576
sg463
(lp1127
F100.0
aF0.0
aF0.0
aF0.0
aF0.0
aF0.0
aF0.0
aF11.1
aF11.1
aF0.0
aF10.0
aF11.1
aF0.0
aF0.0
aF0.0
aF0.0
aF0.0
aF11.1
aF0.0
aF0.0
aF0.0
aF11.1
aF0.0
aF11.1
aF0.0
aF11.1
aF0.0
aF0.0
aF11.1
aF20.0
aF11.1
aF0.0
aF0.0
aF10.0
aF0.0
aF10.0
aF0.0
aF0.0
aF0.0
aF0.0
asg465
g466
sg469
g457
sg470
(lp1128
I0
aI1
asg472
I10044
sg473
g783
sg475
(dp1129
sg477
g478
sg479
Nsg480
Nsg481
(lp1130
I20
aI20
asg483
Nsg484
I10
sbssI10045
(dp1131
g107
I01
sg439
g440
(S"\x07\xe4\n\x1b\x00\x02'\x06<\x14"
p1132
tp1133
Rp1134
sg444
g109
(g445
g111
Ntp1135
Rp1136
(dp1137
g449
S'2.2.2.39'
p1138
sg451
g452
sg453
(lp1139
I1
aI2
aI3
aI4
aI5
aI6
aI7
aI8
aI9
aI10
aI11
aI12
aI13
aI14
aI15
aI16
asg455
(dp1140
g457
(dp1141
g459
g1138
sssg460
I2
sg461
I2
sg462
I1048576
sg463
(lp1142
F100.0
aF0.0
aF18.2
aF0.0
aF11.1
aF0.0
aF0.0
aF0.0
aF0.0
aF11.1
aF0.0
aF0.0
aF0.0
aF11.1
aF0.0
aF0.0
aF11.1
aF11.1
aF0.0
aF0.0
aF0.0
aF0.0
aF11.1
aF0.0
aF0.0
aF0.0
aF0.0
aF0.0
aF0.0
aF0.0
aF0.0
aF0.0
aF0.0
aF0.0
aF0.0
aF11.1
aF0.0
aF11.1
aF0.0
aF0.0
asg465
g466
sg469
g457
sg470
(lp1143
I0
aI1
asg472
I10045
sg473
g783
sg475
(dp1144
sg477
g478
sg479
Nsg480
Nsg481
(lp1145
I20
aI20
asg483
Nsg484
I10
sbssI10046
(dp1146
g107
I01
sg439
g440
(S"\x07\xe4\n\x1b\x00\x02'\x06<\x14"
p1147
tp1148
Rp1149
sg444
g109
(g445
g111
Ntp1150
Rp1151
(dp1152
g449
S'2.2.2.40'
p1153
sg451
g452
sg453
(lp1154
I1
aI2
aI3
aI4
aI5
aI6
aI7
aI8
aI9
aI10
aI11
aI12
aI13
aI14
aI15
aI16
asg455
(dp1155
g457
(dp1156
g459
g1153
sssg460
I2
sg461
I2
sg462
I1048576
sg463
(lp1157
F100.0
aF11.1
aF0.0
aF0.0
aF18.2
aF0.0
aF0.0
aF11.1
aF0.0
aF0.0
aF0.0
aF0.0
aF0.0
aF0.0
aF0.0
aF0.0
aF10.0
aF11.1
aF10.0
aF11.1
aF0.0
aF20.0
aF0.0
aF0.0
aF0.0
aF0.0
aF10.0
aF0.0
aF10.0
aF0.0
aF0.0
aF0.0
aF0.0
aF0.0
aF0.0
aF0.0
aF0.0
aF11.1
aF10.0
aF0.0
asg465
g466
sg469
g457
sg470
(lp1158
I0
aI1
asg472
I10046
sg473
g783
sg475
(dp1159
sg477
g478
sg479
Nsg480
Nsg481
(lp1160
I20
aI20
asg483
Nsg484
I10
sbssI10047
(dp1161
g107
I01
sg439
g440
(S"\x07\xe4\n\x1b\x00\x02'\x06<\x14"
p1162
tp1163
Rp1164
sg444
g109
(g445
g111
Ntp1165
Rp1166
(dp1167
g449
S'2.2.2.41'
p1168
sg451
g452
sg453
(lp1169
I1
aI2
aI3
aI4
aI5
aI6
aI7
aI8
aI9
aI10
aI11
aI12
aI13
aI14
aI15
aI16
asg455
(dp1170
g457
(dp1171
g459
g1168
sssg460
I2
sg461
I2
sg462
I1048576
sg463
(lp1172
F100.0
aF0.0
aF11.1
aF11.1
aF10.0
aF12.5
aF0.0
aF11.1
aF0.0
aF10.0
aF0.0
aF10.0
aF11.1
aF0.0
aF0.0
aF11.1
aF0.0
aF0.0
aF0.0
aF0.0
aF0.0
aF0.0
aF0.0
aF11.1
aF0.0
aF0.0
aF0.0
aF10.0
aF0.0
aF0.0
aF0.0
aF11.1
aF0.0
aF0.0
aF10.0
aF0.0
aF0.0
aF0.0
aF11.1
aF0.0
asg465
g466
sg469
g457
sg470
(lp1173
I0
aI1
asg472
I10047
sg473
g783
sg475
(dp1174
sg477
g478
sg479
Nsg480
Nsg481
(lp1175
I20
aI20
asg483
Nsg484
I10
sbssI10048
(dp1176
g107
I01
sg439
g440
(S"\x07\xe4\n\x1b\x00\x02'\x06<\x14"
p1177
tp1178
Rp1179
sg444
g109
(g445
g111
Ntp1180
Rp1181
(dp1182
g449
S'2.2.2.42'
p1183
sg451
g452
sg453
(lp1184
I1
aI2
aI3
aI4
aI5
aI6
aI7
aI8
aI9
aI10
aI11
aI12
aI13
aI14
aI15
aI16
asg455
(dp1185
g457
(dp1186
g459
g1183
sssg460
I2
sg461
I2
sg462
I1048576
sg463
(lp1187
F100.0
aF10.0
aF18.2
aF0.0
aF0.0
aF0.0
aF0.0
aF0.0
aF22.2
aF0.0
aF0.0
aF0.0
aF0.0
aF11.1
aF0.0
aF0.0
aF0.0
aF0.0
aF10.0
aF0.0
aF0.0
aF10.0
aF0.0
aF0.0
aF0.0
aF11.1
aF0.0
aF0.0
aF0.0
aF11.1
aF0.0
aF11.1
aF11.1
aF0.0
aF0.0
aF0.0
aF0.0
aF0.0
aF11.1
aF0.0
asg465
g466
sg469
g457
sg470
(lp1188
I0
aI1
asg472
I10048
sg473
g783
sg475
(dp1189
sg477
g478
sg479
Nsg480
Nsg481
(lp1190
I20
aI20
asg483
Nsg484
I10
sbssI10049
(dp1191
g107
I01
sg439
g440
(S"\x07\xe4\n\x1b\x00\x02'\x06<\x14"
p1192
tp1193
Rp1194
sg444
g109
(g445
g111
Ntp1195
Rp1196
(dp1197
g449
S'2.2.2.43'
p1198
sg451
g452
sg453
(lp1199
I1
aI2
aI3
aI4
aI5
aI6
aI7
aI8
aI9
aI10
aI11
aI12
aI13
aI14
aI15
aI16
asg455
(dp1200
g457
(dp1201
g459
g1198
sssg460
I2
sg461
I2
sg462
I1048576
sg463
(lp1202
F100.0
aF11.1
aF27.3
aF0.0
aF20.0
aF0.0
aF0.0
aF0.0
aF0.0
aF0.0
aF0.0
aF0.0
aF0.0
aF10.0
aF0.0
aF0.0
aF0.0
aF10.0
aF0.0
aF0.0
aF0.0
aF0.0
aF0.0
aF0.0
aF10.0
aF11.1
aF0.0
aF11.1
aF0.0
aF0.0
aF0.0
aF0.0
aF0.0
aF11.1
aF0.0
aF10.0
aF27.3
aF0.0
aF0.0
aF0.0
asg465
g466
sg469
g457
sg470
(lp1203
I0
aI1
asg472
I10049
sg473
g783
sg475
(dp1204
sg477
g478
sg479
Nsg480
Nsg481
(lp1205
I20
aI20
asg483
Nsg484
I10
sbssI10050
(dp1206
g107
I01
sg439
g440
(S"\x07\xe4\n\x1b\x00\x02'\x06<\x14"
p1207
tp1208
Rp1209
sg444
g109
(g445
g111
Ntp1210
Rp1211
(dp1212
g449
S'2.2.2.44'
p1213
sg451
g452
sg453
(lp1214
I1
aI2
aI3
aI4
aI5
aI6
aI7
aI8
aI9
aI10
aI11
aI12
aI13
aI14
aI15
aI16
asg455
(dp1215
g457
(dp1216
g459
g1213
sssg460
I2
sg461
I2
sg462
I1048576
sg463
(lp1217
F100.0
aF0.0
aF0.0
aF0.0
aF10.0
aF0.0
aF11.1
aF11.1
aF0.0
aF0.0
aF0.0
aF11.1
aF0.0
aF11.1
aF0.0
aF0.0
aF11.1
aF0.0
aF0.0
aF0.0
aF0.0
aF10.0
aF0.0
aF0.0
aF0.0
aF0.0
aF0.0
aF0.0
aF0.0
aF11.1
aF0.0
aF10.0
aF0.0
aF10.0
aF0.0
aF0.0
aF0.0
aF0.0
aF0.0
aF0.0
asg465
g466
sg469
g457
sg470
(lp1218
I0
aI1
asg472
I10050
sg473
g783
sg475
(dp1219
sg477
g478
sg479
Nsg480
Nsg481
(lp1220
I20
aI20
asg483
Nsg484
I10
sbssI10051
(dp1221
g107
I01
sg439
g440
(S"\x07\xe4\n\x1b\x00\x02'\x06<\x14"
p1222
tp1223
Rp1224
sg444
g109
(g445
g111
Ntp1225
Rp1226
(dp1227
g449
S'2.2.2.45'
p1228
sg451
g452
sg453
(lp1229
I1
aI2
aI3
aI4
aI5
aI6
aI7
aI8
aI9
aI10
aI11
aI12
aI13
aI14
aI15
aI16
asg455
(dp1230
g457
(dp1231
g459
g1228
sssg460
I2
sg461
I2
sg462
I1048576
sg463
(lp1232
F100.0
aF0.0
aF0.0
aF0.0
aF0.0
aF0.0
aF11.1
aF0.0
aF0.0
aF0.0
aF11.1
aF11.1
aF0.0
aF0.0
aF0.0
aF0.0
aF0.0
aF0.0
aF11.1
aF11.1
aF0.0
aF0.0
aF0.0
aF0.0
aF0.0
aF11.1
aF12.5
aF11.1
aF0.0
aF0.0
aF0.0
aF0.0
aF0.0
aF11.1
aF0.0
aF0.0
aF0.0
aF0.0
aF0.0
aF0.0
asg465
g466
sg469
g457
sg470
(lp1233
I0
aI1
asg472
I10051
sg473
g783
sg475
(dp1234
sg477
g478
sg479
Nsg480
Nsg481
(lp1235
I20
aI20
asg483
Nsg484
I10
sbssI10052
(dp1236
g107
I01
sg439
g440
(S"\x07\xe4\n\x1b\x00\x02'\x06<\x14"
p1237
tp1238
Rp1239
sg444
g109
(g445
g111
Ntp1240
Rp1241
(dp1242
g449
S'2.2.2.46'
p1243
sg451
g452
sg453
(lp1244
I1
aI2
aI3
aI4
aI5
aI6
aI7
aI8
aI9
aI10
aI11
aI12
aI13
aI14
aI15
aI16
asg455
(dp1245
g457
(dp1246
g459
g1243
sssg460
I2
sg461
I2
sg462
I1048576
sg463
(lp1247
F100.0
aF18.2
aF0.0
aF0.0
aF0.0
aF0.0
aF11.1
aF11.1
aF0.0
aF0.0
aF0.0
aF0.0
aF0.0
aF0.0
aF10.0
aF11.1
aF0.0
aF0.0
aF10.0
aF0.0
aF0.0
aF0.0
aF0.0
aF0.0
aF0.0
aF11.1
aF0.0
aF0.0
aF11.1
aF11.1
aF0.0
aF20.0
aF0.0
aF0.0
aF0.0
aF0.0
aF0.0
aF0.0
aF18.2
aF10.0
asg465
g466
sg469
g457
sg470
(lp1248
I0
aI1
asg472
I10052
sg473
g783
sg475
(dp1249
sg477
g478
sg479
Nsg480
Nsg481
(lp1250
I20
aI20
asg483
Nsg484
I10
sbssI10053
(dp1251
g107
I01
sg439
g440
(S"\x07\xe4\n\x1b\x00\x02'\x06<\x14"
p1252
tp1253
Rp1254
sg444
g109
(g445
g111
Ntp1255
Rp1256
(dp1257
g449
S'2.2.2.47'
p1258
sg451
g452
sg453
(lp1259
I1
aI2
aI3
aI4
aI5
aI6
aI7
aI8
aI9
aI10
aI11
aI12
aI13
aI14
aI15
aI16
asg455
(dp1260
g457
(dp1261
g459
g1258
sssg460
I2
sg461
I2
sg462
I1048576
sg463
(lp1262
F100.0
aF12.5
aF25.0
aF10.0
aF0.0
aF10.0
aF0.0
aF0.0
aF10.0
aF0.0
aF0.0
aF0.0
aF0.0
aF0.0
aF11.1
aF10.0
aF0.0
aF0.0
aF0.0
aF0.0
aF0.0
aF10.0
aF0.0
aF10.0
aF11.1
aF0.0
aF0.0
aF0.0
aF0.0
aF11.1
aF0.0
aF0.0
aF0.0
aF0.0
aF0.0
aF11.1
aF0.0
aF0.0
aF0.0
aF0.0
asg465
g466
sg469
g457
sg470
(lp1263
I0
aI1
asg472
I10053
sg473
g783
sg475
(dp1264
sg477
g478
sg479
Nsg480
Nsg481
(lp1265
I20
aI20
asg483
Nsg484
I10
sbssI10054
(dp1266
g107
I01
sg439
g440
(S"\x07\xe4\n\x1b\x00\x02'\x06<\x14"
p1267
tp1268
Rp1269
sg444
g109
(g445
g111
Ntp1270
Rp1271
(dp1272
g449
S'2.2.2.48'
p1273
sg451
g452
sg453
(lp1274
I1
aI2
aI3
aI4
aI5
aI6
aI7
aI8
aI9
aI10
aI11
aI12
aI13
aI14
aI15
aI16
asg455
(dp1275
g457
(dp1276
g459
g1273
sssg460
I2
sg461
I2
sg462
I1048576
sg463
(lp1277
F100.0
aF0.0
aF10.0
aF11.1
aF18.2
aF0.0
aF20.0
aF10.0
aF0.0
aF0.0
aF0.0
aF0.0
aF0.0
aF11.1
aF0.0
aF0.0
aF0.0
aF10.0
aF0.0
aF0.0
aF0.0
aF11.1
aF0.0
aF0.0
aF0.0
aF0.0
aF0.0
aF0.0
aF10.0
aF0.0
aF11.1
aF0.0
aF0.0
aF11.1
aF0.0
aF0.0
aF0.0
aF12.5
aF0.0
aF10.0
asg465
g466
sg469
g457
sg470
(lp1278
I0
aI1
asg472
I10054
sg473
g783
sg475
(dp1279
sg477
g478
sg479
Nsg480
Nsg481
(lp1280
I20
aI20
asg483
Nsg484
I10
sbssI10055
(dp1281
g107
I01
sg439
g440
(S"\x07\xe4\n\x1b\x00\x02'\x06<\x14"
p1282
tp1283
Rp1284
sg444
g109
(g445
g111
Ntp1285
Rp1286
(dp1287
g449
S'2.2.2.49'
p1288
sg451
g452
sg453
(lp1289
I1
aI2
aI3
aI4
aI5
aI6
aI7
aI8
aI9
aI10
aI11
aI12
aI13
aI14
aI15
aI16
asg455
(dp1290
g457
(dp1291
g459
g1288
sssg460
I2
sg461
I2
sg462
I1048576
sg463
(lp1292
F100.0
aF0.0
aF0.0
aF0.0
aF0.0
aF20.0
aF0.0
aF0.0
aF0.0
aF10.0
aF0.0
aF0.0
aF0.0
aF20.0
aF10.0
aF0.0
aF0.0
aF0.0
aF0.0
aF0.0
aF0.0
aF0.0
aF0.0
aF0.0
aF20.0
aF0.0
aF20.0
aF20.0
aF0.0
aF11.1
aF0.0
aF0.0
aF11.1
aF0.0
aF0.0
aF0.0
aF0.0
aF10.0
aF11.1
aF0.0
asg465
g466
sg469
g457
sg470
(lp1293
I0
aI1
asg472
I10055
sg473
g783
sg475
(dp1294
sg477
g478
sg479
Nsg480
Nsg481
(lp1295
I20
aI20
asg483
Nsg484
I10
sbssI10056
(dp1296
g107
I01
sg439
g440
(S"\x07\xe4\n\x1b\x00\x02'\x06<\x14"
p1297
tp1298
Rp1299
sg444
g109
(g445
g111
Ntp1300
Rp1301
(dp1302
g449
S'2.2.2.50'
p1303
sg451
g452
sg453
(lp1304
I1
aI2
aI3
aI4
aI5
aI6
aI7
aI8
aI9
aI10
aI11
aI12
aI13
aI14
aI15
aI16
asg455
(dp1305
g457
(dp1306
g459
g1303
sssg460
I2
sg461
I2
sg462
I1048576
sg463
(lp1307
F100.0
aF20.0
aF20.0
aF0.0
aF12.5
aF0.0
aF0.0
aF0.0
aF20.0
aF0.0
aF0.0
aF11.1
aF0.0
aF11.1
aF0.0
aF0.0
aF0.0
aF0.0
aF10.0
aF0.0
aF0.0
aF0.0
aF11.1
aF0.0
aF11.1
aF11.1
aF0.0
aF0.0
aF0.0
aF11.1
aF11.1
aF10.0
aF0.0
aF11.1
aF0.0
aF0.0
aF0.0
aF0.0
aF11.1
aF0.0
asg465
g466
sg469
g457
sg470
(lp1308
I0
aI1
asg472
I10056
sg473
g783
sg475
(dp1309
sg477
g478
sg479
Nsg480
Nsg481
(lp1310
I20
aI20
asg483
Nsg484
I10
sbssI10057
(dp1311
g107
I01
sg439
g440
(S"\x07\xe4\n\x1b\x00\x02'\x06<\x14"
p1312
tp1313
Rp1314
sg444
g109
(g445
g111
Ntp1315
Rp1316
(dp1317
g449
S'2.2.2.51'
p1318
sg451
g452
sg453
(lp1319
I1
aI2
aI3
aI4
aI5
aI6
aI7
aI8
aI9
aI10
aI11
aI12
aI13
aI14
aI15
aI16
asg455
(dp1320
g457
(dp1321
g459
g1318
sssg460
I2
sg461
I2
sg462
I1048576
sg463
(lp1322
F100.0
aF0.0
aF18.2
aF11.1
aF0.0
aF0.0
aF0.0
aF11.1
aF0.0
aF11.1
aF20.0
aF0.0
aF10.0
aF0.0
aF0.0
aF0.0
aF0.0
aF0.0
aF0.0
aF11.1
aF0.0
aF10.0
aF0.0
aF0.0
aF0.0
aF10.0
aF0.0
aF0.0
aF0.0
aF22.2
aF0.0
aF0.0
aF18.2
aF0.0
aF11.1
aF0.0
aF0.0
aF0.0
aF0.0
aF0.0
asg465
g466
sg469
g457
sg470
(lp1323
I0
aI1
asg472
I10057
sg473
g783
sg475
(dp1324
sg477
g478
sg479
Nsg480
Nsg481
(lp1325
I20
aI20
asg483
Nsg484
I10
sbssI10058
(dp1326
g107
I01
sg439
g440
(S"\x07\xe4\n\x1b\x00\x02'\x06<\x14"
p1327
tp1328
Rp1329
sg444
g109
(g445
g111
Ntp1330
Rp1331
(dp1332
g449
S'2.2.2.52'
p1333
sg451
g452
sg453
(lp1334
I1
aI2
aI3
aI4
aI5
aI6
aI7
aI8
aI9
aI10
aI11
aI12
aI13
aI14
aI15
aI16
asg455
(dp1335
g457
(dp1336
g459
g1333
sssg460
I2
sg461
I2
sg462
I1048576
sg463
(lp1337
F100.0
aF20.0
aF0.0
aF10.0
aF11.1
aF11.1
aF11.1
aF10.0
aF0.0
aF0.0
aF0.0
aF11.1
aF0.0
aF0.0
aF0.0
aF0.0
aF0.0
aF10.0
aF10.0
aF11.1
aF0.0
aF0.0
aF0.0
aF10.0
aF0.0
aF0.0
aF11.1
aF0.0
aF0.0
aF0.0
aF0.0
aF10.0
aF0.0
aF0.0
aF0.0
aF0.0
aF0.0
aF0.0
aF0.0
aF0.0
asg465
g466
sg469
g457
sg470
(lp1338
I0
aI1
asg472
I10058
sg473
g783
sg475
(dp1339
sg477
g478
sg479
Nsg480
Nsg481
(lp1340
I20
aI20
asg483
Nsg484
I10
sbssI10059
(dp1341
g107
I01
sg439
g440
(S"\x07\xe4\n\x1b\x00\x02'\x06<\x14"
p1342
tp1343
Rp1344
sg444
g109
(g445
g111
Ntp1345
Rp1346
(dp1347
g449
S'2.2.2.53'
p1348
sg451
g452
sg453
(lp1349
I1
aI2
aI3
aI4
aI5
aI6
aI7
aI8
aI9
aI10
aI11
aI12
aI13
aI14
aI15
aI16
asg455
(dp1350
g457
(dp1351
g459
g1348
sssg460
I2
sg461
I2
sg462
I1048576
sg463
(lp1352
F100.0
aF10.0
aF0.0
aF10.0
aF0.0
aF11.1
aF0.0
aF0.0
aF0.0
aF0.0
aF0.0
aF0.0
aF0.0
aF10.0
aF0.0
aF0.0
aF0.0
aF0.0
aF0.0
aF0.0
aF0.0
aF0.0
aF10.0
aF11.1
aF20.0
aF0.0
aF11.1
aF11.1
aF20.0
aF20.0
aF0.0
aF10.0
aF0.0
aF0.0
aF0.0
aF11.1
aF0.0
aF10.0
aF0.0
aF0.0
asg465
g466
sg469
g457
sg470
(lp1353
I0
aI1
asg472
I10059
sg473
g783
sg475
(dp1354
sg477
g478
sg479
Nsg480
Nsg481
(lp1355
I20
aI20
asg483
Nsg484
I10
sbssI10060
(dp1356
g107
I01
sg439
g440
(S"\x07\xe4\n\x1b\x00\x02'\x06<\x14"
p1357
tp1358
Rp1359
sg444
g109
(g445
g111
Ntp1360
Rp1361
(dp1362
g449
S'2.2.2.54'
p1363
sg451
g452
sg453
(lp1364
I1
aI2
aI3
aI4
aI5
aI6
aI7
aI8
aI9
aI10
aI11
aI12
aI13
aI14
aI15
aI16
asg455
(dp1365
g457
(dp1366
g459
g1363
sssg460
I2
sg461
I2
sg462
I1048576
sg463
(lp1367
F100.0
aF27.3
aF0.0
aF0.0
aF11.1
aF0.0
aF0.0
aF0.0
aF0.0
aF0.0
aF11.1
aF0.0
aF0.0
aF0.0
aF0.0
aF0.0
aF11.1
aF0.0
aF10.0
aF11.1
aF0.0
aF0.0
aF0.0
aF11.1
aF0.0
aF11.1
aF0.0
aF10.0
aF0.0
aF0.0
aF11.1
aF0.0
aF0.0
aF0.0
aF0.0
aF0.0
aF0.0
aF0.0
aF0.0
aF0.0
asg465
g466
sg469
g457
sg470
(lp1368
I0
aI1
asg472
I10060
sg473
g783
sg475
(dp1369
sg477
g478
sg479
Nsg480
Nsg481
(lp1370
I20
aI20
asg483
Nsg484
I10
sbssI10061
(dp1371
g107
I01
sg439
g440
(S"\x07\xe4\n\x1b\x00\x02'\x06<\x14"
p1372
tp1373
Rp1374
sg444
g109
(g445
g111
Ntp1375
Rp1376
(dp1377
g449
S'2.2.1.195'
p1378
sg451
g452
sg453
(lp1379
I2
aI3
aI4
aI5
aI6
aI7
aI8
aI9
aI10
aI11
aI13
aI14
aI15
aI16
asg455
(dp1380
g457
(dp1381
g459
g1378
sssg460
I2
sg461
I2
sg462
I1048576
sg463
(lp1382
F100.0
aF11.1
aF0.0
aF0.0
aF11.1
aF0.0
aF0.0
aF0.0
aF0.0
aF0.0
aF0.0
aF0.0
aF0.0
aF0.0
aF0.0
aF0.0
aF0.0
aF10.0
aF0.0
aF11.1
aF0.0
aF0.0
aF0.0
aF0.0
aF0.0
aF0.0
aF0.0
aF11.1
aF20.0
aF0.0
aF0.0
aF0.0
aF0.0
aF0.0
aF0.0
aF0.0
aF0.0
aF20.0
aF0.0
aF0.0
asg465
g466
sg469
g457
sg470
(lp1383
I0
aI1
asg472
I10061
sg473
g783
sg475
(dp1384
sg477
g478
sg479
Nsg480
Nsg481
(lp1385
I20
aI20
asg483
Nsg484
I10
sbssI10062
(dp1386
g107
I01
sg439
g440
(S"\x07\xe4\n\x1b\x00\x02'\x06<\x14"
p1387
tp1388
Rp1389
sg444
g109
(g445
g111
Ntp1390
Rp1391
(dp1392
g449
S'2.2.1.196'
p1393
sg451
g452
sg453
(lp1394
I2
aI3
aI4
aI5
aI6
aI7
aI8
aI9
aI10
aI11
aI13
aI14
aI15
aI16
asg455
(dp1395
g457
(dp1396
g459
g1393
sssg460
I2
sg461
I2
sg462
I1048576
sg463
(lp1397
F100.0
aF0.0
aF18.2
aF0.0
aF0.0
aF0.0
aF10.0
aF0.0
aF0.0
aF22.2
aF0.0
aF10.0
aF0.0
aF10.0
aF0.0
aF0.0
aF0.0
aF0.0
aF0.0
aF0.0
aF0.0
aF0.0
aF0.0
aF0.0
aF0.0
aF0.0
aF0.0
aF0.0
aF0.0
aF0.0
aF0.0
aF0.0
aF0.0
aF20.0
aF0.0
aF0.0
aF10.0
aF0.0
aF0.0
aF11.1
asg465
g466
sg469
g457
sg470
(lp1398
I0
aI1
asg472
I10062
sg473
g783
sg475
(dp1399
sg477
g478
sg479
Nsg480
Nsg481
(lp1400
I20
aI20
asg483
Nsg484
I10
sbssI10063
(dp1401
g107
I01
sg439
g440
(S"\x07\xe4\n\x1b\x00\x02'\x06<\x14"
p1402
tp1403
Rp1404
sg444
g109
(g445
g111
Ntp1405
Rp1406
(dp1407
g449
S'2.2.1.197'
p1408
sg451
g452
sg453
(lp1409
I2
aI3
aI4
aI5
aI6
aI7
aI8
aI9
aI10
aI11
aI13
aI14
aI15
aI16
asg455
(dp1410
g457
(dp1411
g459
g1408
sssg460
I2
sg461
I2
sg462
I1048576
sg463
(lp1412
F100.0
aF18.2
aF0.0
aF0.0
aF0.0
aF0.0
aF0.0
aF0.0
aF0.0
aF0.0
aF11.1
aF0.0
aF0.0
aF0.0
aF0.0
aF0.0
aF0.0
aF11.1
aF0.0
aF0.0
aF0.0
aF10.0
aF0.0
aF10.0
aF0.0
aF10.0
aF11.1
aF0.0
aF0.0
aF11.1
aF0.0
aF10.0
aF0.0
aF0.0
aF10.0
aF10.0
aF0.0
aF0.0
aF0.0
aF10.0
asg465
g466
sg469
g457
sg470
(lp1413
I0
aI1
asg472
I10063
sg473
g783
sg475
(dp1414
sg477
g478
sg479
Nsg480
Nsg481
(lp1415
I20
aI20
asg483
Nsg484
I10
sbssI10064
(dp1416
g107
I01
sg439
g440
(S"\x07\xe4\n\x1b\x00\x02'\x06<\x14"
p1417
tp1418
Rp1419
sg444
g109
(g445
g111
Ntp1420
Rp1421
(dp1422
g449
S'2.2.1.198'
p1423
sg451
g452
sg453
(lp1424
I2
aI3
aI4
aI5
aI6
aI7
aI8
aI9
aI10
aI11
aI13
aI14
aI15
aI16
asg455
(dp1425
g457
(dp1426
g459
g1423
sssg460
I2
sg461
I2
sg462
I1048576
sg463
(lp1427
F100.0
aF18.2
aF10.0
aF0.0
aF0.0
aF0.0
aF0.0
aF12.5
aF0.0
aF0.0
aF0.0
aF0.0
aF0.0
aF10.0
aF0.0
aF11.1
aF10.0
aF0.0
aF10.0
aF11.1
aF0.0
aF0.0
aF10.0
aF0.0
aF0.0
aF0.0
aF0.0
aF0.0
aF0.0
aF0.0
aF11.1
aF11.1
aF0.0
aF0.0
aF0.0
aF11.1
aF0.0
aF0.0
aF0.0
aF0.0
asg465
g466
sg469
g457
sg470
(lp1428
I0
aI1
asg472
I10064
sg473
g783
sg475
(dp1429
sg477
g478
sg479
Nsg480
Nsg481
(lp1430
I20
aI20
asg483
Nsg484
I10
sbssI10065
(dp1431
g107
I01
sg439
g440
(S"\x07\xe4\n\x1b\x00\x02'\x06<\x14"
p1432
tp1433
Rp1434
sg444
g109
(g445
g111
Ntp1435
Rp1436
(dp1437
g449
S'2.2.1.199'
p1438
sg451
g452
sg453
(lp1439
I2
aI3
aI4
aI5
aI6
aI7
aI8
aI9
aI10
aI11
aI13
aI14
aI15
aI16
asg455
(dp1440
g457
(dp1441
g459
g1438
sssg460
I2
sg461
I2
sg462
I1048576
sg463
(lp1442
F100.0
aF0.0
aF20.0
aF27.3
aF0.0
aF10.0
aF0.0
aF0.0
aF11.1
aF0.0
aF0.0
aF0.0
aF20.0
aF0.0
aF0.0
aF0.0
aF0.0
aF0.0
aF0.0
aF0.0
aF0.0
aF0.0
aF0.0
aF10.0
aF0.0
aF11.1
aF0.0
aF0.0
aF0.0
aF0.0
aF10.0
aF0.0
aF0.0
aF11.1
aF0.0
aF0.0
aF0.0
aF0.0
aF20.0
aF20.0
asg465
g466
sg469
g457
sg470
(lp1443
I0
aI1
asg472
I10065
sg473
g783
sg475
(dp1444
sg477
g478
sg479
Nsg480
Nsg481
(lp1445
I20
aI20
asg483
Nsg484
I10
sbssI10066
(dp1446
g107
I01
sg439
g440
(S"\x07\xe4\n\x1b\x00\x02'\x06<\x14"
p1447
tp1448
Rp1449
sg444
g109
(g445
g111
Ntp1450
Rp1451
(dp1452
g449
S'2.2.1.200'
p1453
sg451
g452
sg453
(lp1454
I2
aI3
aI4
aI5
aI6
aI7
aI8
aI9
aI10
aI11
aI13
aI14
aI15
aI16
asg455
(dp1455
g457
(dp1456
g459
g1453
sssg460
I2
sg461
I2
sg462
I1048576
sg463
(lp1457
F100.0
aF0.0
aF18.2
aF0.0
aF11.1
aF10.0
aF0.0
aF11.1
aF10.0
aF11.1
aF11.1
aF0.0
aF0.0
aF11.1
aF0.0
aF0.0
aF0.0
aF0.0
aF10.0
aF0.0
aF0.0
aF0.0
aF0.0
aF0.0
aF0.0
aF0.0
aF0.0
aF10.0
aF10.0
aF0.0
aF0.0
aF0.0
aF0.0
aF0.0
aF0.0
aF0.0
aF10.0
aF11.1
aF0.0
aF0.0
asg465
g466
sg469
g457
sg470
(lp1458
I0
aI1
asg472
I10066
sg473
g783
sg475
(dp1459
sg477
g478
sg479
Nsg480
Nsg481
(lp1460
I20
aI20
asg483
Nsg484
I10
sbssI10067
(dp1461
g107
I01
sg439
g440
(S"\x07\xe4\n\x1b\x00\x02'\x06<\x14"
p1462
tp1463
Rp1464
sg444
g109
(g445
g111
Ntp1465
Rp1466
(dp1467
g449
S'2.2.1.201'
p1468
sg451
g452
sg453
(lp1469
I2
aI3
aI4
aI5
aI6
aI7
aI8
aI9
aI10
aI11
aI13
aI14
aI15
aI16
asg455
(dp1470
g457
(dp1471
g459
g1468
sssg460
I2
sg461
I2
sg462
I1048576
sg463
(lp1472
F100.0
aF11.1
aF0.0
aF11.1
aF11.1
aF0.0
aF0.0
aF0.0
aF0.0
aF0.0
aF10.0
aF0.0
aF0.0
aF10.0
aF0.0
aF11.1
aF0.0
aF0.0
aF0.0
aF0.0
aF0.0
aF11.1
aF10.0
aF0.0
aF0.0
aF0.0
aF0.0
aF0.0
aF0.0
aF0.0
aF0.0
aF0.0
aF0.0
aF0.0
aF0.0
aF0.0
aF0.0
aF11.1
aF11.1
aF0.0
asg465
g466
sg469
g457
sg470
(lp1473
I0
aI1
asg472
I10067
sg473
g783
sg475
(dp1474
sg477
g478
sg479
Nsg480
Nsg481
(lp1475
I20
aI20
asg483
Nsg484
I10
sbssI10068
(dp1476
g107
I01
sg439
g440
(S"\x07\xe4\n\x1b\x00\x02'\x06<\x14"
p1477
tp1478
Rp1479
sg444
g109
(g445
g111
Ntp1480
Rp1481
(dp1482
g449
S'2.2.1.202'
p1483
sg451
g452
sg453
(lp1484
I2
aI3
aI4
aI5
aI6
aI7
aI8
aI9
aI10
aI11
aI13
aI14
aI15
aI16
asg455
(dp1485
g457
(dp1486
g459
g1483
sssg460
I2
sg461
I2
sg462
I1048576
sg463
(lp1487
F100.0
aF10.0
aF0.0
aF0.0
aF0.0
aF18.2
aF0.0
aF0.0
aF0.0
aF0.0
aF0.0
aF0.0
aF0.0
aF22.2
aF0.0
aF11.1
aF0.0
aF11.1
aF0.0
aF10.0
aF0.0
aF0.0
aF0.0
aF0.0
aF11.1
aF10.0
aF0.0
aF0.0
aF0.0
aF0.0
aF0.0
aF10.0
aF0.0
aF11.1
aF0.0
aF10.0
aF0.0
aF10.0
aF0.0
aF0.0
asg465
g466
sg469
g457
sg470
(lp1488
I0
aI1
asg472
I10068
sg473
g783
sg475
(dp1489
sg477
g478
sg479
Nsg480
Nsg481
(lp1490
I20
aI20
asg483
Nsg484
I10
sbssI10069
(dp1491
g107
I01
sg439
g440
(S"\x07\xe4\n\x1b\x00\x02'\x06<\x14"
p1492
tp1493
Rp1494
sg444
g109
(g445
g111
Ntp1495
Rp1496
(dp1497
g449
S'2.2.1.203'
p1498
sg451
g452
sg453
(lp1499
I2
aI3
aI4
aI5
aI6
aI7
aI8
aI9
aI10
aI11
aI13
aI14
aI15
aI16
asg455
(dp1500
g457
(dp1501
g459
g1498
sssg460
I2
sg461
I2
sg462
I1048576
sg463
(lp1502
F100.0
aF0.0
aF10.0
aF0.0
aF0.0
aF10.0
aF11.1
aF10.0
aF0.0
aF20.0
aF0.0
aF0.0
aF0.0
aF0.0
aF0.0
aF0.0
aF0.0
aF10.0
aF0.0
aF0.0
aF0.0
aF0.0
aF0.0
aF0.0
aF0.0
aF11.1
aF11.1
aF20.0
aF0.0
aF0.0
aF0.0
aF0.0
aF20.0
aF0.0
aF0.0
aF0.0
aF0.0
aF0.0
aF0.0
aF0.0
asg465
g466
sg469
g457
sg470
(lp1503
I0
aI1
asg472
I10069
sg473
g783
sg475
(dp1504
sg477
g478
sg479
Nsg480
Nsg481
(lp1505
I20
aI20
asg483
Nsg484
I10
sbssI10070
(dp1506
g107
I01
sg439
g440
(S"\x07\xe4\n\x1b\x00\x02'\x06<\x14"
p1507
tp1508
Rp1509
sg444
g109
(g445
g111
Ntp1510
Rp1511
(dp1512
g449
S'2.2.1.204'
p1513
sg451
g452
sg453
(lp1514
I2
aI3
aI4
aI5
aI6
aI7
aI8
aI9
aI10
aI11
aI13
aI14
aI15
aI16
asg455
(dp1515
g457
(dp1516
g459
g1513
sssg460
I2
sg461
I2
sg462
I1048576
sg463
(lp1517
F100.0
aF12.5
aF11.1
aF11.1
aF0.0
aF0.0
aF10.0
aF0.0
aF11.1
aF0.0
aF0.0
aF0.0
aF0.0
aF0.0
aF0.0
aF0.0
aF11.1
aF0.0
aF0.0
aF11.1
aF0.0
aF11.1
aF0.0
aF0.0
aF0.0
aF0.0
aF0.0
aF11.1
aF0.0
aF0.0
aF0.0
aF11.1
aF0.0
aF0.0
aF0.0
aF0.0
aF0.0
aF0.0
aF10.0
aF0.0
asg465
g466
sg469
g457
sg470
(lp1518
I0
aI1
asg472
I10070
sg473
g783
sg475
(dp1519
sg477
g478
sg479
Nsg480
Nsg481
(lp1520
I20
aI20
asg483
Nsg484
I10
sbssI10071
(dp1521
g107
I01
sg439
g440
(S"\x07\xe4\n\x1b\x00\x02'\x06<\x14"
p1522
tp1523
Rp1524
sg444
g109
(g445
g111
Ntp1525
Rp1526
(dp1527
g449
S'2.2.1.205'
p1528
sg451
g452
sg453
(lp1529
I2
aI3
aI4
aI5
aI6
aI7
aI8
aI9
aI10
aI11
aI13
aI14
aI15
aI16
asg455
(dp1530
g457
(dp1531
g459
g1528
sssg460
I2
sg461
I2
sg462
I1048576
sg463
(lp1532
F100.0
aF0.0
aF11.1
aF0.0
aF0.0
aF0.0
aF11.1
aF11.1
aF10.0
aF0.0
aF10.0
aF11.1
aF0.0
aF0.0
aF0.0
aF0.0
aF0.0
aF0.0
aF11.1
aF0.0
aF0.0
aF0.0
aF0.0
aF12.5
aF0.0
aF10.0
aF0.0
aF0.0
aF0.0
aF10.0
aF0.0
aF0.0
aF0.0
aF10.0
aF0.0
aF0.0
aF0.0
aF0.0
aF0.0
aF0.0
asg465
g466
sg469
g457
sg470
(lp1533
I0
aI1
asg472
I10071
sg473
g783
sg475
(dp1534
sg477
g478
sg479
Nsg480
Nsg481
(lp1535
I20
aI20
asg483
Nsg484
I10
sbssI10072
(dp1536
g107
I01
sg439
g440
(S"\x07\xe4\n\x1b\x00\x02'\x06<\x14"
p1537
tp1538
Rp1539
sg444
g109
(g445
g111
Ntp1540
Rp1541
(dp1542
g449
S'2.2.1.206'
p1543
sg451
g452
sg453
(lp1544
I2
aI3
aI4
aI5
aI6
aI7
aI8
aI9
aI10
aI11
aI13
aI14
aI15
aI16
asg455
(dp1545
g457
(dp1546
g459
g1543
sssg460
I2
sg461
I2
sg462
I1048576
sg463
(lp1547
F100.0
aF20.0
aF0.0
aF18.2
aF0.0
aF0.0
aF0.0
aF0.0
aF0.0
aF0.0
aF0.0
aF0.0
aF0.0
aF20.0
aF0.0
aF0.0
aF0.0
aF22.2
aF0.0
aF0.0
aF0.0
aF0.0
aF0.0
aF11.1
aF0.0
aF0.0
aF10.0
aF0.0
aF10.0
aF0.0
aF9.1
aF0.0
aF0.0
aF0.0
aF0.0
aF0.0
aF0.0
aF0.0
aF0.0
aF11.1
asg465
g466
sg469
g457
sg470
(lp1548
I0
aI1
asg472
I10072
sg473
g783
sg475
(dp1549
sg477
g478
sg479
Nsg480
Nsg481
(lp1550
I20
aI20
asg483
Nsg484
I10
sbssI10073
(dp1551
g107
I01
sg439
g440
(S"\x07\xe4\n\x1b\x00\x02'\x06<\x14"
p1552
tp1553
Rp1554
sg444
g109
(g445
g111
Ntp1555
Rp1556
(dp1557
g449
S'2.2.1.207'
p1558
sg451
g452
sg453
(lp1559
I2
aI3
aI4
aI5
aI6
aI7
aI8
aI9
aI10
aI11
aI13
aI14
aI15
aI16
asg455
(dp1560
g457
(dp1561
g459
g1558
sssg460
I2
sg461
I2
sg462
I1048576
sg463
(lp1562
F100.0
aF0.0
aF22.2
aF20.0
aF0.0
aF11.1
aF0.0
aF0.0
aF0.0
aF11.1
aF0.0
aF10.0
aF0.0
aF0.0
aF0.0
aF0.0
aF11.1
aF0.0
aF0.0
aF11.1
aF0.0
aF11.1
aF0.0
aF10.0
aF11.1
aF10.0
aF0.0
aF22.2
aF0.0
aF0.0
aF0.0
aF0.0
aF0.0
aF0.0
aF0.0
aF0.0
aF10.0
aF0.0
aF0.0
aF0.0
asg465
g466
sg469
g457
sg470
(lp1563
I0
aI1
asg472
I10073
sg473
g783
sg475
(dp1564
sg477
g478
sg479
Nsg480
Nsg481
(lp1565
I20
aI20
asg483
Nsg484
I10
sbssI10074
(dp1566
g107
I01
sg439
g440
(S"\x07\xe4\n\x1b\x00\x02'\x06<\x14"
p1567
tp1568
Rp1569
sg444
g109
(g445
g111
Ntp1570
Rp1571
(dp1572
g449
S'2.2.1.208'
p1573
sg451
g452
sg453
(lp1574
I2
aI3
aI4
aI5
aI6
aI7
aI8
aI9
aI10
aI11
aI13
aI14
aI15
aI16
asg455
(dp1575
g457
(dp1576
g459
g1573
sssg460
I2
sg461
I2
sg462
I1048576
sg463
(lp1577
F100.0
aF11.1
aF0.0
aF10.0
aF20.0
aF20.0
aF0.0
aF0.0
aF10.0
aF10.0
aF0.0
aF10.0
aF0.0
aF0.0
aF0.0
aF0.0
aF0.0
aF10.0
aF0.0
aF0.0
aF0.0
aF0.0
aF0.0
aF0.0
aF0.0
aF0.0
aF0.0
aF0.0
aF10.0
aF0.0
aF0.0
aF0.0
aF0.0
aF0.0
aF0.0
aF9.1
aF0.0
aF0.0
aF10.0
aF10.0
asg465
g466
sg469
g457
sg470
(lp1578
I0
aI1
asg472
I10074
sg473
g783
sg475
(dp1579
sg477
g478
sg479
Nsg480
Nsg481
(lp1580
I20
aI20
asg483
Nsg484
I10
sbssI10075
(dp1581
g107
I01
sg439
g440
(S"\x07\xe4\n\x1b\x00\x02'\x06<\x14"
p1582
tp1583
Rp1584
sg444
g109
(g445
g111
Ntp1585
Rp1586
(dp1587
g449
S'2.2.1.209'
p1588
sg451
g452
sg453
(lp1589
I2
aI3
aI4
aI5
aI6
aI7
aI8
aI9
aI10
aI11
aI13
aI14
aI15
aI16
asg455
(dp1590
g457
(dp1591
g459
g1588
sssg460
I2
sg461
I2
sg462
I1048576
sg463
(lp1592
F100.0
aF11.1
aF0.0
aF18.2
aF0.0
aF0.0
aF0.0
aF11.1
aF12.5
aF11.1
aF10.0
aF0.0
aF0.0
aF10.0
aF0.0
aF11.1
aF0.0
aF0.0
aF0.0
aF0.0
aF0.0
aF10.0
aF0.0
aF0.0
aF0.0
aF11.1
aF0.0
aF11.1
aF0.0
aF11.1
aF12.5
aF0.0
aF0.0
aF0.0
aF0.0
aF0.0
aF0.0
aF10.0
aF0.0
aF0.0
asg465
g466
sg469
g457
sg470
(lp1593
I0
aI1
asg472
I10075
sg473
g783
sg475
(dp1594
sg477
g478
sg479
Nsg480
Nsg481
(lp1595
I20
aI20
asg483
Nsg484
I10
sbssI10076
(dp1596
g107
I01
sg439
g440
(S"\x07\xe4\n\x1b\x00\x02'\x06<\x14"
p1597
tp1598
Rp1599
sg444
g109
(g445
g111
Ntp1600
Rp1601
(dp1602
g449
S'2.2.1.210'
p1603
sg451
g452
sg453
(lp1604
I2
aI3
aI4
aI5
aI6
aI7
aI8
aI9
aI10
aI11
aI13
aI14
aI15
aI16
asg455
(dp1605
g457
(dp1606
g459
g1603
sssg460
I2
sg461
I2
sg462
I1048576
sg463
(lp1607
F100.0
aF11.1
aF10.0
aF0.0
aF0.0
aF0.0
aF22.2
aF0.0
aF11.1
aF10.0
aF0.0
aF0.0
aF0.0
aF0.0
aF10.0
aF11.1
aF0.0
aF12.5
aF0.0
aF0.0
aF0.0
aF0.0
aF0.0
aF10.0
aF0.0
aF10.0
aF0.0
aF0.0
aF0.0
aF0.0
aF11.1
aF20.0
aF0.0
aF0.0
aF0.0
aF0.0
aF0.0
aF11.1
aF0.0
aF0.0
asg465
g466
sg469
g457
sg470
(lp1608
I0
aI1
asg472
I10076
sg473
g783
sg475
(dp1609
sg477
g478
sg479
Nsg480
Nsg481
(lp1610
I20
aI20
asg483
Nsg484
I10
sbssI10077
(dp1611
g107
I01
sg439
g440
(S"\x07\xe4\n\x1b\x00\x02'\x06<\x14"
p1612
tp1613
Rp1614
sg444
g109
(g445
g111
Ntp1615
Rp1616
(dp1617
g449
S'2.2.1.211'
p1618
sg451
g452
sg453
(lp1619
I2
aI3
aI4
aI5
aI6
aI7
aI8
aI9
aI10
aI11
aI13
aI14
aI15
aI16
asg455
(dp1620
g457
(dp1621
g459
g1618
sssg460
I2
sg461
I2
sg462
I1048576
sg463
(lp1622
F100.0
aF0.0
aF0.0
aF0.0
aF10.0
aF0.0
aF0.0
aF0.0
aF0.0
aF0.0
aF0.0
aF12.5
aF11.1
aF10.0
aF0.0
aF10.0
aF0.0
aF0.0
aF0.0
aF0.0
aF0.0
aF0.0
aF11.1
aF0.0
aF0.0
aF11.1
aF0.0
aF0.0
aF0.0
aF0.0
aF10.0
aF0.0
aF0.0
aF0.0
aF11.1
aF0.0
aF0.0
aF0.0
aF0.0
aF0.0
asg465
g466
sg469
g457
sg470
(lp1623
I0
aI1
asg472
I10077
sg473
g783
sg475
(dp1624
sg477
g478
sg479
Nsg480
Nsg481
(lp1625
I20
aI20
asg483
Nsg484
I10
sbssI10078
(dp1626
g107
I01
sg439
g440
(S"\x07\xe4\n\x1b\x00\x02'\x06<\x14"
p1627
tp1628
Rp1629
sg444
g109
(g445
g111
Ntp1630
Rp1631
(dp1632
g449
S'2.2.1.212'
p1633
sg451
g452
sg453
(lp1634
I2
aI3
aI4
aI5
aI6
aI7
aI8
aI9
aI10
aI11
aI13
aI14
aI15
aI16
asg455
(dp1635
g457
(dp1636
g459
g1633
sssg460
I2
sg461
I2
sg462
I1048576
sg463
(lp1637
F100.0
aF18.2
aF0.0
aF0.0
aF0.0
aF0.0
aF20.0
aF0.0
aF11.1
aF10.0
aF0.0
aF0.0
aF0.0
aF0.0
aF0.0
aF0.0
aF0.0
aF10.0
aF0.0
aF0.0
aF0.0
aF0.0
aF0.0
aF10.0
aF0.0
aF0.0
aF0.0
aF11.1
aF0.0
aF0.0
aF0.0
aF0.0
aF0.0
aF10.0
aF11.1
aF11.1
aF0.0
aF0.0
aF0.0
aF11.1
asg465
g466
sg469
g457
sg470
(lp1638
I0
aI1
asg472
I10078
sg473
g783
sg475
(dp1639
sg477
g478
sg479
Nsg480
Nsg481
(lp1640
I20
aI20
asg483
Nsg484
I10
sbssI10079
(dp1641
g107
I01
sg439
g440
(S"\x07\xe4\n\x1b\x00\x02'\x06<\x14"
p1642
tp1643
Rp1644
sg444
g109
(g445
g111
Ntp1645
Rp1646
(dp1647
g449
S'2.2.1.213'
p1648
sg451
g452
sg453
(lp1649
I2
aI3
aI4
aI5
aI6
aI7
aI8
aI9
aI10
aI11
aI13
aI14
aI15
aI16
asg455
(dp1650
g457
(dp1651
g459
g1648
sssg460
I2
sg461
I2
sg462
I1048576
sg463
(lp1652
F100.0
aF10.0
aF10.0
aF0.0
aF0.0
aF11.1
aF0.0
aF10.0
aF0.0
aF0.0
aF0.0
aF0.0
aF10.0
aF0.0
aF0.0
aF0.0
aF0.0
aF0.0
aF0.0
aF0.0
aF0.0
aF0.0
aF10.0
aF0.0
aF0.0
aF0.0
aF0.0
aF11.1
aF11.1
aF0.0
aF11.1
aF0.0
aF0.0
aF0.0
aF0.0
aF0.0
aF0.0
aF0.0
aF0.0
aF0.0
asg465
g466
sg469
g457
sg470
(lp1653
I0
aI1
asg472
I10079
sg473
g783
sg475
(dp1654
sg477
g478
sg479
Nsg480
Nsg481
(lp1655
I20
aI20
asg483
Nsg484
I10
sbssI10080
(dp1656
g107
I01
sg439
g440
(S"\x07\xe4\n\x1b\x00\x02'\x06<\x14"
p1657
tp1658
Rp1659
sg444
g109
(g445
g111
Ntp1660
Rp1661
(dp1662
g449
S'2.2.1.214'
p1663
sg451
g452
sg453
(lp1664
I2
aI3
aI4
aI5
aI6
aI7
aI8
aI9
aI10
aI11
aI13
aI14
aI15
aI16
asg455
(dp1665
g457
(dp1666
g459
g1663
sssg460
I2
sg461
I2
sg462
I1048576
sg463
(lp1667
F100.0
aF11.1
aF25.0
aF20.0
aF0.0
aF10.0
aF9.1
aF0.0
aF0.0
aF0.0
aF0.0
aF0.0
aF0.0
aF0.0
aF11.1
aF0.0
aF0.0
aF0.0
aF10.0
aF11.1
aF0.0
aF0.0
aF0.0
aF0.0
aF11.1
aF0.0
aF0.0
aF0.0
aF0.0
aF0.0
aF0.0
aF0.0
aF0.0
aF0.0
aF10.0
aF0.0
aF20.0
aF0.0
aF0.0
aF0.0
asg465
g466
sg469
g457
sg470
(lp1668
I0
aI1
asg472
I10080
sg473
g783
sg475
(dp1669
sg477
g478
sg479
Nsg480
Nsg481
(lp1670
I20
aI20
asg483
Nsg484
I10
sbssI10081
(dp1671
g107
I01
sg439
g440
(S"\x07\xe4\n\x1b\x00\x02'\x06<\x14"
p1672
tp1673
Rp1674
sg444
g109
(g445
g111
Ntp1675
Rp1676
(dp1677
g449
S'2.2.1.227'
p1678
sg451
g452
sg453
(lp1679
I1
aI2
aI3
aI4
aI5
aI6
aI7
aI8
aI9
aI10
aI11
aI12
aI13
aI14
aI16
asg455
(dp1680
g457
(dp1681
g459
g1678
sssg460
I2
sg461
I2
sg462
I1048576
sg463
(lp1682
F100.0
aF0.0
aF18.2
aF0.0
aF0.0
aF0.0
aF0.0
aF11.1
aF11.1
aF0.0
aF0.0
aF0.0
aF0.0
aF0.0
aF11.1
aF0.0
aF0.0
aF11.1
aF10.0
aF11.1
aF0.0
aF11.1
aF0.0
aF11.1
aF0.0
aF0.0
aF0.0
aF10.0
aF0.0
aF12.5
aF0.0
aF0.0
aF0.0
aF0.0
aF0.0
aF0.0
aF11.1
aF11.1
aF0.0
aF0.0
asg465
g466
sg469
g457
sg470
(lp1683
I0
aI1
asg472
I10081
sg473
g783
sg475
(dp1684
sg477
g478
sg479
Nsg480
Nsg481
(lp1685
I20
aI20
asg483
Nsg484
I10
sbssI10082
(dp1686
g107
I01
sg439
g440
(S"\x07\xe4\n\x1b\x00\x02'\x06<\x14"
p1687
tp1688
Rp1689
sg444
g109
(g445
g111
Ntp1690
Rp1691
(dp1692
g449
S'2.2.1.228'
p1693
sg451
g452
sg453
(lp1694
I1
aI2
aI3
aI4
aI5
aI6
aI7
aI8
aI9
aI10
aI11
aI12
aI13
aI14
aI16
asg455
(dp1695
g457
(dp1696
g459
g1693
sssg460
I2
sg461
I2
sg462
I1048576
sg463
(lp1697
F100.0
aF30.8
aF12.5
aF11.1
aF0.0
aF0.0
aF11.1
aF0.0
aF0.0
aF0.0
aF12.5
aF0.0
aF0.0
aF0.0
aF0.0
aF11.1
aF0.0
aF0.0
aF0.0
aF0.0
aF0.0
aF11.1
aF0.0
aF0.0
aF0.0
aF0.0
aF0.0
aF0.0
aF10.0
aF10.0
aF0.0
aF20.0
aF11.1
aF0.0
aF0.0
aF0.0
aF0.0
aF0.0
aF0.0
aF10.0
asg465
g466
sg469
g457
sg470
(lp1698
I0
aI1
asg472
I10082
sg473
g783
sg475
(dp1699
sg477
g478
sg479
Nsg480
Nsg481
(lp1700
I20
aI20
asg483
Nsg484
I10
sbssI10083
(dp1701
g107
I01
sg439
g440
(S"\x07\xe4\n\x1b\x00\x02'\x06<\x14"
p1702
tp1703
Rp1704
sg444
g109
(g445
g111
Ntp1705
Rp1706
(dp1707
g449
S'2.2.1.229'
p1708
sg451
g452
sg453
(lp1709
I1
aI2
aI3
aI4
aI5
aI6
aI7
aI8
aI9
aI10
aI11
aI12
aI13
aI14
aI16
asg455
(dp1710
g457
(dp1711
g459
g1708
sssg460
I2
sg461
I2
sg462
I1048576
sg463
(lp1712
F100.0
aF27.3
aF11.1
aF0.0
aF11.1
aF0.0
aF0.0
aF11.1
aF0.0
aF10.0
aF0.0
aF11.1
aF0.0
aF0.0
aF11.1
aF0.0
aF11.1
aF0.0
aF0.0
aF10.0
aF0.0
aF0.0
aF11.1
aF0.0
aF0.0
aF0.0
aF11.1
aF11.1
aF0.0
aF11.1
aF0.0
aF0.0
aF0.0
aF11.1
aF0.0
aF11.1
aF0.0
aF0.0
aF10.0
aF11.1
asg465
g466
sg469
g457
sg470
(lp1713
I0
aI1
asg472
I10083
sg473
g783
sg475
(dp1714
sg477
g478
sg479
Nsg480
Nsg481
(lp1715
I20
aI20
asg483
Nsg484
I10
sbssI10084
(dp1716
g107
I01
sg439
g440
(S"\x07\xe4\n\x1b\x00\x02'\x06<\x14"
p1717
tp1718
Rp1719
sg444
g109
(g445
g111
Ntp1720
Rp1721
(dp1722
g449
S'2.2.1.230'
p1723
sg451
g452
sg453
(lp1724
I1
aI2
aI3
aI4
aI5
aI6
aI7
aI8
aI9
aI10
aI11
aI12
aI13
aI14
aI16
asg455
(dp1725
g457
(dp1726
g459
g1723
sssg460
I2
sg461
I2
sg462
I1048576
sg463
(lp1727
F100.0
aF18.2
aF10.0
aF0.0
aF0.0
aF0.0
aF0.0
aF11.1
aF0.0
aF0.0
aF0.0
aF11.1
aF0.0
aF10.0
aF0.0
aF0.0
aF0.0
aF0.0
aF0.0
aF0.0
aF0.0
aF0.0
aF0.0
aF11.1
aF0.0
aF11.1
aF0.0
aF0.0
aF10.0
aF0.0
aF11.1
aF0.0
aF0.0
aF0.0
aF11.1
aF0.0
aF0.0
aF0.0
aF0.0
aF0.0
asg465
g466
sg469
g457
sg470
(lp1728
I0
aI1
asg472
I10084
sg473
g783
sg475
(dp1729
sg477
g478
sg479
Nsg480
Nsg481
(lp1730
I20
aI20
asg483
Nsg484
I10
sbssI10085
(dp1731
g107
I01
sg439
g440
(S"\x07\xe4\n\x1b\x00\x02'\x06<\x14"
p1732
tp1733
Rp1734
sg444
g109
(g445
g111
Ntp1735
Rp1736
(dp1737
g449
S'2.2.1.231'
p1738
sg451
g452
sg453
(lp1739
I1
aI2
aI3
aI4
aI5
aI6
aI7
aI8
aI9
aI10
aI11
aI12
aI13
aI14
aI16
asg455
(dp1740
g457
(dp1741
g459
g1738
sssg460
I2
sg461
I2
sg462
I1048576
sg463
(lp1742
F100.0
aF25.0
aF0.0
aF0.0
aF10.0
aF0.0
aF0.0
aF0.0
aF0.0
aF0.0
aF0.0
aF0.0
aF0.0
aF0.0
aF0.0
aF11.1
aF0.0
aF10.0
aF0.0
aF11.1
aF0.0
aF0.0
aF0.0
aF11.1
aF0.0
aF11.1
aF0.0
aF11.1
aF0.0
aF10.0
aF11.1
aF11.1
aF0.0
aF0.0
aF0.0
aF0.0
aF12.5
aF0.0
aF0.0
aF0.0
asg465
g466
sg469
g457
sg470
(lp1743
I0
aI1
asg472
I10085
sg473
g783
sg475
(dp1744
sg477
g478
sg479
Nsg480
Nsg481
(lp1745
I20
aI20
asg483
Nsg484
I10
sbssI10086
(dp1746
g107
I01
sg439
g440
(S"\x07\xe4\n\x1b\x00\x02'\x06<\x14"
p1747
tp1748
Rp1749
sg444
g109
(g445
g111
Ntp1750
Rp1751
(dp1752
g449
S'2.2.1.232'
p1753
sg451
g452
sg453
(lp1754
I1
aI2
aI3
aI4
aI5
aI6
aI7
aI8
aI9
aI10
aI11
aI12
aI13
aI14
aI16
asg455
(dp1755
g457
(dp1756
g459
g1753
sssg460
I2
sg461
I2
sg462
I1048576
sg463
(lp1757
F100.0
aF25.0
aF0.0
aF0.0
aF0.0
aF11.1
aF0.0
aF11.1
aF0.0
aF0.0
aF0.0
aF0.0
aF0.0
aF0.0
aF0.0
aF0.0
aF10.0
aF0.0
aF0.0
aF0.0
aF0.0
aF11.1
aF0.0
aF0.0
aF0.0
aF11.1
aF0.0
aF11.1
aF0.0
aF0.0
aF0.0
aF0.0
aF0.0
aF10.0
aF0.0
aF11.1
aF11.1
aF11.1
aF11.1
aF0.0
asg465
g466
sg469
g457
sg470
(lp1758
I0
aI1
asg472
I10086
sg473
g783
sg475
(dp1759
sg477
g478
sg479
Nsg480
Nsg481
(lp1760
I20
aI20
asg483
Nsg484
I10
sbssI10087
(dp1761
g107
I01
sg439
g440
(S"\x07\xe4\n\x1b\x00\x02'\x06<\x14"
p1762
tp1763
Rp1764
sg444
g109
(g445
g111
Ntp1765
Rp1766
(dp1767
g449
S'2.2.1.233'
p1768
sg451
g452
sg453
(lp1769
I1
aI2
aI3
aI4
aI5
aI6
aI7
aI8
aI9
aI10
aI11
aI12
aI13
aI14
aI16
asg455
(dp1770
g457
(dp1771
g459
g1768
sssg460
I2
sg461
I2
sg462
I1048576
sg463
(lp1772
F100.0
aF18.2
aF11.1
aF0.0
aF0.0
aF20.0
aF0.0
aF0.0
aF0.0
aF0.0
aF0.0
aF0.0
aF0.0
aF0.0
aF0.0
aF0.0
aF11.1
aF11.1
aF0.0
aF0.0
aF0.0
aF10.0
aF0.0
aF10.0
aF0.0
aF10.0
aF0.0
aF0.0
aF0.0
aF0.0
aF0.0
aF0.0
aF0.0
aF10.0
aF0.0
aF0.0
aF0.0
aF0.0
aF10.0
aF20.0
asg465
g466
sg469
g457
sg470
(lp1773
I0
aI1
asg472
I10087
sg473
g783
sg475
(dp1774
sg477
g478
sg479
Nsg480
Nsg481
(lp1775
I20
aI20
asg483
Nsg484
I10
sbssI10088
(dp1776
g107
I01
sg439
g440
(S"\x07\xe4\n\x1b\x00\x02'\x06<\x14"
p1777
tp1778
Rp1779
sg444
g109
(g445
g111
Ntp1780
Rp1781
(dp1782
g449
S'2.2.1.234'
p1783
sg451
g452
sg453
(lp1784
I1
aI2
aI3
aI4
aI5
aI6
aI7
aI8
aI9
aI10
aI11
aI12
aI13
aI14
aI16
asg455
(dp1785
g457
(dp1786
g459
g1783
sssg460
I2
sg461
I2
sg462
I1048576
sg463
(lp1787
F100.0
aF20.0
aF11.1
aF0.0
aF0.0
aF11.1
aF0.0
aF0.0
aF0.0
aF11.1
aF0.0
aF0.0
aF0.0
aF10.0
aF0.0
aF0.0
aF0.0
aF0.0
aF0.0
aF0.0
aF0.0
aF0.0
aF11.1
aF0.0
aF10.0
aF0.0
aF0.0
aF10.0
aF0.0
aF0.0
aF0.0
aF0.0
aF0.0
aF0.0
aF0.0
aF11.1
aF11.1
aF0.0
aF10.0
aF0.0
asg465
g466
sg469
g457
sg470
(lp1788
I0
aI1
asg472
I10088
sg473
g783
sg475
(dp1789
sg477
g478
sg479
Nsg480
Nsg481
(lp1790
I20
aI20
asg483
Nsg484
I10
sbssI10089
(dp1791
g107
I01
sg439
g440
(S"\x07\xe4\n\x1b\x00\x02'\x06<\x14"
p1792
tp1793
Rp1794
sg444
g109
(g445
g111
Ntp1795
Rp1796
(dp1797
g449
S'2.2.1.235'
p1798
sg451
g452
sg453
(lp1799
I1
aI2
aI3
aI4
aI5
aI6
aI7
aI8
aI9
aI10
aI11
aI12
aI13
aI14
aI16
asg455
(dp1800
g457
(dp1801
g459
g1798
sssg460
I2
sg461
I2
sg462
I1048576
sg463
(lp1802
F100.0
aF18.2
aF0.0
aF11.1
aF0.0
aF0.0
aF0.0
aF20.0
aF0.0
aF0.0
aF0.0
aF0.0
aF0.0
aF0.0
aF0.0
aF0.0
aF11.1
aF11.1
aF0.0
aF0.0
aF0.0
aF0.0
aF10.0
aF0.0
aF0.0
aF0.0
aF0.0
aF0.0
aF0.0
aF0.0
aF0.0
aF0.0
aF0.0
aF0.0
aF0.0
aF0.0
aF22.2
aF0.0
aF0.0
aF0.0
asg465
g466
sg469
g457
sg470
(lp1803
I0
aI1
asg472
I10089
sg473
g783
sg475
(dp1804
sg477
g478
sg479
Nsg480
Nsg481
(lp1805
I20
aI20
asg483
Nsg484
I10
sbssI10090
(dp1806
g107
I01
sg439
g440
(S"\x07\xe4\n\x1b\x00\x02'\x06<\x14"
p1807
tp1808
Rp1809
sg444
g109
(g445
g111
Ntp1810
Rp1811
(dp1812
g449
S'2.2.1.236'
p1813
sg451
g452
sg453
(lp1814
I1
aI2
aI3
aI4
aI5
aI6
aI7
aI8
aI9
aI10
aI11
aI12
aI13
aI14
aI16
asg455
(dp1815
g457
(dp1816
g459
g1813
sssg460
I2
sg461
I2
sg462
I1048576
sg463
(lp1817
F100.0
aF11.1
aF10.0
aF0.0
aF0.0
aF11.1
aF0.0
aF0.0
aF0.0
aF0.0
aF0.0
aF0.0
aF0.0
aF10.0
aF0.0
aF0.0
aF11.1
aF20.0
aF10.0
aF0.0
aF0.0
aF0.0
aF10.0
aF11.1
aF0.0
aF0.0
aF0.0
aF10.0
aF0.0
aF0.0
aF0.0
aF0.0
aF0.0
aF10.0
aF0.0
aF0.0
aF0.0
aF20.0
aF10.0
aF0.0
asg465
g466
sg469
g457
sg470
(lp1818
I0
aI1
asg472
I10090
sg473
g783
sg475
(dp1819
sg477
g478
sg479
Nsg480
Nsg481
(lp1820
I20
aI20
asg483
Nsg484
I10
sbssI10091
(dp1821
g107
I01
sg439
g440
(S"\x07\xe4\n\x1b\x00\x02'\x06<\x14"
p1822
tp1823
Rp1824
sg444
g109
(g445
g111
Ntp1825
Rp1826
(dp1827
g449
S'2.2.1.237'
p1828
sg451
g452
sg453
(lp1829
I1
aI2
aI3
aI4
aI5
aI6
aI7
aI8
aI9
aI10
aI11
aI12
aI13
aI14
aI16
asg455
(dp1830
g457
(dp1831
g459
g1828
sssg460
I2
sg461
I2
sg462
I1048576
sg463
(lp1832
F100.0
aF0.0
aF18.2
aF11.1
aF10.0
aF11.1
aF10.0
aF0.0
aF10.0
aF0.0
aF0.0
aF20.0
aF0.0
aF0.0
aF0.0
aF11.1
aF11.1
aF0.0
aF0.0
aF0.0
aF0.0
aF0.0
aF0.0
aF0.0
aF10.0
aF20.0
aF0.0
aF0.0
aF0.0
aF11.1
aF0.0
aF0.0
aF0.0
aF0.0
aF0.0
aF11.1
aF0.0
aF0.0
aF0.0
aF0.0
asg465
g466
sg469
g457
sg470
(lp1833
I0
aI1
asg472
I10091
sg473
g783
sg475
(dp1834
sg477
g478
sg479
Nsg480
Nsg481
(lp1835
I20
aI20
asg483
Nsg484
I10
sbssI10092
(dp1836
g107
I01
sg439
g440
(S"\x07\xe4\n\x1b\x00\x02'\x06<\x14"
p1837
tp1838
Rp1839
sg444
g109
(g445
g111
Ntp1840
Rp1841
(dp1842
g449
S'2.2.1.238'
p1843
sg451
g452
sg453
(lp1844
I1
aI2
aI3
aI4
aI5
aI6
aI7
aI8
aI9
aI10
aI11
aI12
aI13
aI14
aI16
asg455
(dp1845
g457
(dp1846
g459
g1843
sssg460
I2
sg461
I2
sg462
I1048576
sg463
(lp1847
F100.0
aF11.1
aF22.2
aF18.2
aF0.0
aF0.0
aF0.0
aF0.0
aF0.0
aF11.1
aF0.0
aF0.0
aF0.0
aF0.0
aF0.0
aF0.0
aF0.0
aF0.0
aF10.0
aF18.2
aF0.0
aF0.0
aF11.1
aF0.0
aF0.0
aF0.0
aF0.0
aF0.0
aF0.0
aF0.0
aF0.0
aF0.0
aF0.0
aF11.1
aF0.0
aF0.0
aF20.0
aF0.0
aF0.0
aF0.0
asg465
g466
sg469
g457
sg470
(lp1848
I0
aI1
asg472
I10092
sg473
g783
sg475
(dp1849
sg477
g478
sg479
Nsg480
Nsg481
(lp1850
I20
aI20
asg483
Nsg484
I10
sbssI10093
(dp1851
g107
I01
sg439
g440
(S"\x07\xe4\n\x1b\x00\x02'\x06<\x14"
p1852
tp1853
Rp1854
sg444
g109
(g445
g111
Ntp1855
Rp1856
(dp1857
g449
S'2.2.1.239'
p1858
sg451
g452
sg453
(lp1859
I1
aI2
aI3
aI4
aI5
aI6
aI7
aI8
aI9
aI10
aI11
aI12
aI13
aI14
aI16
asg455
(dp1860
g457
(dp1861
g459
g1858
sssg460
I2
sg461
I2
sg462
I1048576
sg463
(lp1862
F100.0
aF0.0
aF0.0
aF11.1
aF11.1
aF0.0
aF10.0
aF0.0
aF0.0
aF0.0
aF0.0
aF11.1
aF0.0
aF10.0
aF0.0
aF0.0
aF0.0
aF0.0
aF0.0
aF0.0
aF0.0
aF0.0
aF0.0
aF0.0
aF10.0
aF0.0
aF11.1
aF11.1
aF0.0
aF0.0
aF0.0
aF0.0
aF0.0
aF10.0
aF0.0
aF0.0
aF22.2
aF0.0
aF0.0
aF0.0
asg465
g466
sg469
g457
sg470
(lp1863
I0
aI1
asg472
I10093
sg473
g783
sg475
(dp1864
sg477
g478
sg479
Nsg480
Nsg481
(lp1865
I20
aI20
asg483
Nsg484
I10
sbssI10094
(dp1866
g107
I01
sg439
g440
(S"\x07\xe4\n\x1b\x00\x02'\x06<\x14"
p1867
tp1868
Rp1869
sg444
g109
(g445
g111
Ntp1870
Rp1871
(dp1872
g449
S'2.2.1.240'
p1873
sg451
g452
sg453
(lp1874
I1
aI2
aI3
aI4
aI5
aI6
aI7
aI8
aI9
aI10
aI11
aI12
aI13
aI14
aI16
asg455
(dp1875
g457
(dp1876
g459
g1873
sssg460
I2
sg461
I2
sg462
I1048576
sg463
(lp1877
F100.0
aF10.0
aF11.1
aF0.0
aF0.0
aF0.0
aF0.0
aF10.0
aF0.0
aF0.0
aF0.0
aF0.0
aF0.0
aF11.1
aF0.0
aF0.0
aF11.1
aF10.0
aF11.1
aF0.0
aF0.0
aF0.0
aF0.0
aF0.0
aF0.0
aF11.1
aF0.0
aF20.0
aF0.0
aF0.0
aF0.0
aF20.0
aF0.0
aF0.0
aF0.0
aF0.0
aF0.0
aF0.0
aF0.0
aF0.0
asg465
g466
sg469
g457
sg470
(lp1878
I0
aI1
asg472
I10094
sg473
g783
sg475
(dp1879
sg477
g478
sg479
Nsg480
Nsg481
(lp1880
I20
aI20
asg483
Nsg484
I10
sbssI10095
(dp1881
g107
I01
sg439
g440
(S"\x07\xe4\n\x1b\x00\x02'\x06<\x14"
p1882
tp1883
Rp1884
sg444
g109
(g445
g111
Ntp1885
Rp1886
(dp1887
g449
S'2.2.1.241'
p1888
sg451
g452
sg453
(lp1889
I1
aI2
aI3
aI4
aI5
aI6
aI7
aI8
aI9
aI10
aI11
aI12
aI13
aI14
aI16
asg455
(dp1890
g457
(dp1891
g459
g1888
sssg460
I2
sg461
I2
sg462
I1048576
sg463
(lp1892
F100.0
aF11.1
aF10.0
aF10.0
aF20.0
aF0.0
aF0.0
aF0.0
aF0.0
aF10.0
aF0.0
aF11.1
aF0.0
aF0.0
aF0.0
aF0.0
aF0.0
aF10.0
aF0.0
aF11.1
aF0.0
aF0.0
aF10.0
aF0.0
aF0.0
aF10.0
aF0.0
aF0.0
aF0.0
aF11.1
aF0.0
aF0.0
aF0.0
aF0.0
aF0.0
aF11.1
aF12.5
aF0.0
aF0.0
aF10.0
asg465
g466
sg469
g457
sg470
(lp1893
I0
aI1
asg472
I10095
sg473
g783
sg475
(dp1894
sg477
g478
sg479
Nsg480
Nsg481
(lp1895
I20
aI20
asg483
Nsg484
I10
sbssI10096
(dp1896
g107
I01
sg439
g440
(S"\x07\xe4\n\x1b\x00\x02'\x06<\x14"
p1897
tp1898
Rp1899
sg444
g109
(g445
g111
Ntp1900
Rp1901
(dp1902
g449
S'2.2.1.242'
p1903
sg451
g452
sg453
(lp1904
I1
aI2
aI3
aI4
aI5
aI6
aI7
aI8
aI9
aI10
aI11
aI12
aI13
aI14
aI16
asg455
(dp1905
g457
(dp1906
g459
g1903
sssg460
I2
sg461
I2
sg462
I1048576
sg463
(lp1907
F100.0
aF0.0
aF18.2
aF0.0
aF11.1
aF0.0
aF0.0
aF0.0
aF0.0
aF11.1
aF0.0
aF0.0
aF0.0
aF0.0
aF0.0
aF0.0
aF12.5
aF0.0
aF11.1
aF0.0
aF0.0
aF0.0
aF11.1
aF11.1
aF0.0
aF0.0
aF0.0
aF0.0
aF11.1
aF11.1
aF0.0
aF0.0
aF10.0
aF0.0
aF0.0
aF0.0
aF11.1
aF0.0
aF10.0
aF0.0
asg465
g466
sg469
g457
sg470
(lp1908
I0
aI1
asg472
I10096
sg473
g783
sg475
(dp1909
sg477
g478
sg479
Nsg480
Nsg481
(lp1910
I20
aI20
asg483
Nsg484
I10
sbssI10097
(dp1911
g107
I01
sg439
g440
(S"\x07\xe4\n\x1b\x00\x02'\x06<\x14"
p1912
tp1913
Rp1914
sg444
g109
(g445
g111
Ntp1915
Rp1916
(dp1917
g449
S'2.2.1.243'
p1918
sg451
g452
sg453
(lp1919
I1
aI2
aI3
aI4
aI5
aI6
aI7
aI8
aI9
aI10
aI11
aI12
aI13
aI14
aI16
asg455
(dp1920
g457
(dp1921
g459
g1918
sssg460
I2
sg461
I2
sg462
I1048576
sg463
(lp1922
F100.0
aF10.0
aF0.0
aF10.0
aF11.1
aF0.0
aF10.0
aF0.0
aF0.0
aF0.0
aF0.0
aF0.0
aF0.0
aF0.0
aF0.0
aF11.1
aF11.1
aF0.0
aF11.1
aF0.0
aF0.0
aF0.0
aF0.0
aF0.0
aF0.0
aF0.0
aF0.0
aF10.0
aF0.0
aF10.0
aF0.0
aF0.0
aF0.0
aF0.0
aF0.0
aF11.1
aF20.0
aF0.0
aF0.0
aF11.1
asg465
g466
sg469
g457
sg470
(lp1923
I0
aI1
asg472
I10097
sg473
g783
sg475
(dp1924
sg477
g478
sg479
Nsg480
Nsg481
(lp1925
I20
aI20
asg483
Nsg484
I10
sbssI10098
(dp1926
g107
I01
sg439
g440
(S"\x07\xe4\n\x1b\x00\x02'\x06<\x14"
p1927
tp1928
Rp1929
sg444
g109
(g445
g111
Ntp1930
Rp1931
(dp1932
g449
S'2.2.1.244'
p1933
sg451
g452
sg453
(lp1934
I1
aI2
aI3
aI4
aI5
aI6
aI7
aI8
aI9
aI10
aI11
aI12
aI13
aI14
aI16
asg455
(dp1935
g457
(dp1936
g459
g1933
sssg460
I2
sg461
I2
sg462
I1048576
sg463
(lp1937
F100.0
aF11.1
aF0.0
aF10.0
aF0.0
aF0.0
aF0.0
aF0.0
aF0.0
aF0.0
aF0.0
aF11.1
aF0.0
aF0.0
aF10.0
aF0.0
aF0.0
aF10.0
aF0.0
aF0.0
aF0.0
aF20.0
aF10.0
aF0.0
aF10.0
aF0.0
aF0.0
aF22.2
aF0.0
aF0.0
aF0.0
aF0.0
aF0.0
aF0.0
aF0.0
aF0.0
aF0.0
aF0.0
aF20.0
aF10.0
asg465
g466
sg469
g457
sg470
(lp1938
I0
aI1
asg472
I10098
sg473
g783
sg475
(dp1939
sg477
g478
sg479
Nsg480
Nsg481
(lp1940
I20
aI20
asg483
Nsg484
I10
sbssI10099
(dp1941
g107
I01
sg439
g440
(S"\x07\xe4\n\x1b\x00\x02'\x06<\x14"
p1942
tp1943
Rp1944
sg444
g109
(g445
g111
Ntp1945
Rp1946
(dp1947
g449
S'2.2.1.245'
p1948
sg451
g452
sg453
(lp1949
I1
aI2
aI3
aI4
aI5
aI6
aI7
aI8
aI9
aI10
aI11
aI12
aI13
aI14
aI16
asg455
(dp1950
g457
(dp1951
g459
g1948
sssg460
I2
sg461
I2
sg462
I1048576
sg463
(lp1952
F100.0
aF0.0
aF20.0
aF0.0
aF0.0
aF11.1
aF0.0
aF10.0
aF0.0
aF0.0
aF0.0
aF0.0
aF0.0
aF0.0
aF0.0
aF11.1
aF0.0
aF0.0
aF0.0
aF11.1
aF0.0
aF0.0
aF0.0
aF20.0
aF0.0
aF0.0
aF0.0
aF0.0
aF0.0
aF0.0
aF0.0
aF0.0
aF0.0
aF11.1
aF0.0
aF0.0
aF33.3
aF0.0
aF0.0
aF0.0
asg465
g466
sg469
g457
sg470
(lp1953
I0
aI1
asg472
I10099
sg473
g783
sg475
(dp1954
sg477
g478
sg479
Nsg480
Nsg481
(lp1955
I20
aI20
asg483
Nsg484
I10
sbssI10100
(dp1956
g107
I01
sg439
g440
(S"\x07\xe4\n\x1b\x00\x02'\x06<\x14"
p1957
tp1958
Rp1959
sg444
g109
(g445
g111
Ntp1960
Rp1961
(dp1962
g449
S'2.2.1.246'
p1963
sg451
g452
sg453
(lp1964
I1
aI2
aI3
aI4
aI5
aI6
aI7
aI8
aI9
aI10
aI11
aI12
aI13
aI14
aI16
asg455
(dp1965
g457
(dp1966
g459
g1963
sssg460
I2
sg461
I2
sg462
I1048576
sg463
(lp1967
F100.0
aF30.8
aF0.0
aF0.0
aF0.0
aF0.0
aF0.0
aF0.0
aF0.0
aF11.1
aF11.1
aF0.0
aF0.0
aF11.1
aF0.0
aF11.1
aF20.0
aF0.0
aF10.0
aF0.0
aF0.0
aF0.0
aF0.0
aF0.0
aF11.1
aF0.0
aF0.0
aF0.0
aF0.0
aF0.0
aF0.0
aF0.0
aF0.0
aF0.0
aF11.1
aF11.1
aF0.0
aF12.5
aF0.0
aF0.0
asg465
g466
sg469
g457
sg470
(lp1968
I0
aI1
asg472
I10100
sg473
g783
sg475
(dp1969
sg477
g478
sg479
Nsg480
Nsg481
(lp1970
I20
aI20
asg483
Nsg484
I10
sbsssS'switches'
p1971
(dp1972
I0
(dp1973
g107
I01
sS'switch'
p1974
g109
(csam.base.switch
Switch
p1975
g111
Ntp1976
Rp1977
(dp1978
S'tcamSize'
p1979
I2000
sS'switchID'
p1980
I0
sS'lanNet'
p1981
S'2.2.0.0/27'
p1982
sS'switchType'
p1983
S'SWITCH_TYPE_DCNGATEWAY'
p1984
sS'tcamUsage'
p1985
I0
sS'programmable'
p1986
I00
sS'supportNF'
p1987
(lp1988
sS'supportVNF'
p1989
(lp1990
sbssI1
(dp1991
g107
I01
sg1974
g109
(g1975
g111
Ntp1992
Rp1993
(dp1994
g1979
I2000
sg1980
I1
sg1981
S'2.2.0.32/27'
p1995
sg1983
S'SWITCH_TYPE_FORWARD'
p1996
sg1985
I0
sg1986
I00
sg1987
(lp1997
sg1989
(lp1998
sbssI2
(dp1999
g107
I01
sg1974
g109
(g1975
g111
Ntp2000
Rp2001
(dp2002
g1979
I2000
sg1980
I2
sg1981
S'2.2.0.64/27'
p2003
sg1983
g1996
sg1985
I0
sg1986
I00
sg1987
(lp2004
sg1989
(lp2005
sbssI3
(dp2006
g107
I01
sg1974
g109
(g1975
g111
Ntp2007
Rp2008
(dp2009
g1979
I2000
sg1980
I3
sg1981
S'2.2.0.96/27'
p2010
sg1983
g1996
sg1985
I0
sg1986
I00
sg1987
(lp2011
sg1989
(lp2012
sbssI4
(dp2013
g107
I01
sg1974
g109
(g1975
g111
Ntp2014
Rp2015
(dp2016
g1979
I2000
sg1980
I4
sg1981
S'2.2.0.128/27'
p2017
sg1983
g1996
sg1985
I0
sg1986
I00
sg1987
(lp2018
sg1989
(lp2019
sbssI5
(dp2020
g107
I01
sg1974
g109
(g1975
g111
Ntp2021
Rp2022
(dp2023
g1979
I2000
sg1980
I5
sg1981
S'2.2.0.160/27'
p2024
sg1983
g1996
sg1985
I0
sg1986
I00
sg1987
(lp2025
sg1989
(lp2026
sbssI6
(dp2027
g107
I01
sg1974
g109
(g1975
g111
Ntp2028
Rp2029
(dp2030
g1979
I2000
sg1980
I6
sg1981
S'2.2.0.192/27'
p2031
sg1983
g1996
sg1985
I0
sg1986
I00
sg1987
(lp2032
sg1989
(lp2033
sbssI7
(dp2034
g107
I01
sg1974
g109
(g1975
g111
Ntp2035
Rp2036
(dp2037
g1979
I2000
sg1980
I7
sg1981
S'2.2.0.224/27'
p2038
sg1983
g1996
sg1985
I0
sg1986
I00
sg1987
(lp2039
sg1989
(lp2040
sbssI8
(dp2041
g107
I01
sg1974
g109
(g1975
g111
Ntp2042
Rp2043
(dp2044
g1979
I2000
sg1980
I8
sg1981
S'2.2.1.0/27'
p2045
sg1983
g1996
sg1985
I0
sg1986
I00
sg1987
(lp2046
sg1989
(lp2047
sbssI9
(dp2048
g107
I01
sg1974
g109
(g1975
g111
Ntp2049
Rp2050
(dp2051
g1979
I2000
sg1980
I9
sg1981
S'2.2.1.32/27'
p2052
sg1983
g1996
sg1985
I0
sg1986
I00
sg1987
(lp2053
sg1989
(lp2054
sbssI10
(dp2055
g107
I01
sg1974
g109
(g1975
g111
Ntp2056
Rp2057
(dp2058
g1979
I2000
sg1980
I10
sg1981
S'2.2.1.64/27'
p2059
sg1983
g1996
sg1985
I0
sg1986
I00
sg1987
(lp2060
sg1989
(lp2061
sbssI11
(dp2062
g107
I01
sg1974
g109
(g1975
g111
Ntp2063
Rp2064
(dp2065
g1979
I2000
sg1980
I11
sg1981
S'2.2.1.96/27'
p2066
sg1983
g1996
sg1985
I0
sg1986
I00
sg1987
(lp2067
sg1989
(lp2068
sbssI12
(dp2069
g107
I01
sg1974
g109
(g1975
g111
Ntp2070
Rp2071
(dp2072
g1979
I2000
sg1980
I12
sg1981
S'2.2.1.128/27'
p2073
sg1983
g1996
sg1985
I0
sg1986
I00
sg1987
(lp2074
sg1989
(lp2075
sbssI13
(dp2076
g107
I01
sg1974
g109
(g1975
g111
Ntp2077
Rp2078
(dp2079
g1979
I2000
sg1980
I13
sg1981
S'2.2.1.160/27'
p2080
sg1983
g1996
sg1985
I0
sg1986
I00
sg1987
(lp2081
sg1989
(lp2082
sbssI14
(dp2083
g107
I01
sg1974
g109
(g1975
g111
Ntp2084
Rp2085
(dp2086
g1979
I2000
sg1980
I14
sg1981
S'2.2.1.192/27'
p2087
sg1983
S'SWITCH_TYPE_NPOP'
p2088
sg1985
I0
sg1986
I01
sg1987
(lp2089
I2
aI3
aI4
aI5
aI6
aI7
aI8
aI9
aI10
aI11
aI13
aI14
aI15
aI16
asg1989
(lp2090
I2
aI3
aI4
aI5
aI6
aI7
aI8
aI9
aI10
aI11
aI13
aI14
aI15
aI16
asbssI15
(dp2091
g107
I01
sg1974
g109
(g1975
g111
Ntp2092
Rp2093
(dp2094
g1979
I2000
sg1980
I15
sg1981
S'2.2.1.224/27'
p2095
sg1983
g2088
sg1985
I0
sg1986
I01
sg1987
(lp2096
I1
aI2
aI3
aI4
aI5
aI6
aI7
aI8
aI9
aI10
aI11
aI12
aI13
aI14
aI16
asg1989
(lp2097
I1
aI2
aI3
aI4
aI5
aI6
aI7
aI8
aI9
aI10
aI11
aI12
aI13
aI14
aI16
asbssI16
(dp2098
g107
I01
sg1974
g109
(g1975
g111
Ntp2099
Rp2100
(dp2101
g1979
I2000
sg1980
I16
sg1981
S'2.2.2.0/27'
p2102
sg1983
g2088
sg1985
I0
sg1986
I01
sg1987
(lp2103
I1
aI2
aI3
aI4
aI5
aI6
aI7
aI8
aI9
aI10
aI11
aI12
aI13
aI14
aI15
aI16
asg1989
(lp2104
I1
aI2
aI3
aI4
aI5
aI6
aI7
aI8
aI9
aI10
aI11
aI12
aI13
aI14
aI15
aI16
asbssI17
(dp2105
g107
I01
sg1974
g109
(g1975
g111
Ntp2106
Rp2107
(dp2108
g1979
I2000
sg1980
I17
sg1981
S'2.2.2.32/27'
p2109
sg1983
g2088
sg1985
I0
sg1986
I01
sg1987
(lp2110
I1
aI2
aI3
aI4
aI5
aI6
aI7
aI8
aI9
aI10
aI11
aI12
aI13
aI14
aI15
aI16
asg1989
(lp2111
I1
aI2
aI3
aI4
aI5
aI6
aI7
aI8
aI9
aI10
aI11
aI12
aI13
aI14
aI15
aI16
asbssI18
(dp2112
g107
I01
sg1974
g109
(g1975
g111
Ntp2113
Rp2114
(dp2115
g1979
I2000
sg1980
I18
sg1981
S'2.2.2.64/27'
p2116
sg1983
g1996
sg1985
I0
sg1986
I00
sg1987
(lp2117
sg1989
(lp2118
sbssI19
(dp2119
g107
I01
sg1974
g109
(g1975
g111
Ntp2120
Rp2121
(dp2122
g1979
I2000
sg1980
I19
sg1981
S'2.2.2.96/27'
p2123
sg1983
g1996
sg1985
I0
sg1986
I00
sg1987
(lp2124
sg1989
(lp2125
sbsssS'nodeNum'
p2126
I20
sS'vnfLocation'
p2127
(dp2128
I1
(lp2129
I17
aI15
aI16
aI15
aI15
aI16
asI2
(lp2130
I14
aI17
aI14
aI16
aI15
aI16
asI3
(lp2131
I15
aI17
aI14
aI16
aI14
aI17
asI4
(lp2132
I14
aI17
aI16
aI15
aI15
aI15
asI5
(lp2133
I14
aI16
aI15
aI15
aI17
aI14
asI6
(lp2134
I14
aI16
aI17
aI15
aI15
aI14
asI7
(lp2135
I17
aI14
aI16
aI15
aI14
aI17
asI8
(lp2136
I16
aI15
aI14
aI17
aI17
aI15
asI9
(lp2137
I14
aI17
aI15
aI16
aI14
aI15
asI10
(lp2138
I15
aI16
aI17
aI14
aI15
aI14
asI11
(lp2139
I16
aI15
aI14
aI17
aI16
aI15
asI12
(lp2140
I16
aI15
aI17
aI17
aI17
aI17
asI13
(lp2141
I16
aI15
aI14
aI14
aI17
aI14
asI14
(lp2142
I16
aI15
aI14
aI17
aI14
aI16
asI15
(lp2143
I16
aI14
aI17
aI17
aI16
aI17
asI16
(lp2144
I17
aI15
aI14
aI16
aI16
aI14
ass.